;
; File generated by cc65 v 2.19 - Git 4680d68
;
	.fopt		compiler,"cc65 v 2.19 - Git 4680d68"
	.setcpu		"6502"
	.smart		on
	.autoimport	on
	.case		on
	.debuginfo	off
	.importzp	c_sp, sreg, regsave, regbank
	.importzp	tmp1, tmp2, tmp3, tmp4, ptr1, ptr2, ptr3, ptr4
	.macpack	longbranch
	.forceimport	__STARTUP__
	.import		_pal_bg
	.import		_pal_spr
	.import		_ppu_wait_nmi
	.import		_ppu_off
	.import		_ppu_on_all
	.import		_oam_clear
	.import		_oam_spr
	.import		_pad_poll
	.import		_scroll
	.import		_vram_adr
	.import		_vram_put
	.export		_i
	.export		_j
	.export		_pad1
	.export		_p1_facing
	.export		_p1grounded
	.export		_p1score
	.export		_p1changed
	.export		_p1_x
	.export		_p1_y
	.export		_b1_x
	.export		_b1_y
	.export		_b1
	.export		_p1_dy
	.export		_p1_dx
	.export		_b1_vx
	.export		_pad2
	.export		_p2_facing
	.export		_p2grounded
	.export		_p2score
	.export		_p2changed
	.export		_p2_x
	.export		_p2_y
	.export		_b2_x
	.export		_b2_y
	.export		_b2
	.export		_p2_dy
	.export		_p2_dx
	.export		_b2_vx
	.export		_map_id
	.export		_game_state
	.export		_maps
	.export		_palette
	.export		_drawl_title_screen
	.export		_main

.segment	"RODATA"

_maps:
	.byte	$28
	.byte	$B4
	.byte	$30
	.byte	$8C
	.byte	$B4
	.byte	$30
	.byte	$64
	.byte	$9B
	.byte	$20
	.byte	$0A
	.byte	$96
	.byte	$40
	.byte	$B4
	.byte	$96
	.byte	$40
	.byte	$64
	.byte	$B4
	.byte	$30
	.byte	$28
	.byte	$B4
	.byte	$30
	.byte	$64
	.byte	$96
	.byte	$30
	.byte	$A0
	.byte	$78
	.byte	$30
_palette:
	.byte	$0F
	.byte	$16
	.byte	$28
	.byte	$30
	.byte	$00
	.byte	$00
	.byte	$00
	.byte	$00
	.byte	$00
	.byte	$00
	.byte	$00
	.byte	$00
	.byte	$00
	.byte	$00
	.byte	$00
	.byte	$00

.segment	"BSS"

.segment	"ZEROPAGE"
.segment	"ZEROPAGE"
_i:
	.res	1,$00
_j:
	.res	1,$00
_pad1:
	.res	1,$00
_p1_facing:
	.res	1,$00
_p1grounded:
	.res	1,$00
_p1score:
	.res	1,$00
_p1changed:
	.res	1,$00
_p1_x:
	.res	1,$00
_p1_y:
	.res	1,$00
_b1_x:
	.res	1,$00
_b1_y:
	.res	1,$00
_b1:
	.res	1,$00
_p1_dy:
	.res	1,$00
_p1_dx:
	.res	1,$00
_b1_vx:
	.res	1,$00
_pad2:
	.res	1,$00
_p2_facing:
	.res	1,$00
_p2grounded:
	.res	1,$00
_p2score:
	.res	1,$00
_p2changed:
	.res	1,$00
_p2_x:
	.res	1,$00
_p2_y:
	.res	1,$00
_b2_x:
	.res	1,$00
_b2_y:
	.res	1,$00
_b2:
	.res	1,$00
_p2_dy:
	.res	1,$00
_p2_dx:
	.res	1,$00
_b2_vx:
	.res	1,$00
_map_id:
	.res	1,$00
_game_state:
	.res	1,$00

; ---------------------------------------------------------------
; void __near__ drawl_title_screen (void)
; ---------------------------------------------------------------

.segment	"CODE"

.proc	_drawl_title_screen: near

.segment	"CODE"

;
; vram_adr(NTADR_A(10, 14)); 
;
	ldx     #$21
	lda     #$CA
	jsr     _vram_adr
;
; vram_put(0x31); 
;
	lda     #$31
	jsr     _vram_put
;
; vram_adr(NTADR_A(16, 14)); 
;
	ldx     #$21
	lda     #$D0
	jsr     _vram_adr
;
; vram_put(0x32); 
;
	lda     #$32
	jsr     _vram_put
;
; vram_adr(NTADR_A(22, 14));
;
	ldx     #$21
	lda     #$D6
	jsr     _vram_adr
;
; vram_put(0x33);
;
	lda     #$33
	jmp     _vram_put

.endproc

; ---------------------------------------------------------------
; void __near__ main (void)
; ---------------------------------------------------------------

.segment	"CODE"

.proc	_main: near

.segment	"CODE"

;
; p1_x = 40;
;
	lda     #$28
	sta     _p1_x
;
; p2_x = 200;
;
	lda     #$C8
	sta     _p2_x
;
; p1_y = 200;
;
	sta     _p1_y
;
; p2_y = 200;
;
	sta     _p2_y
;
; p1_dy = 0;
;
	lda     #$00
	sta     _p1_dy
;
; p1_dx = 0;
;
	sta     _p1_dx
;
; p2_dy = 0;
;
	sta     _p2_dy
;
; p2_dx = 0;
;
	sta     _p2_dx
;
; p1score = 0;
;
	sta     _p1score
;
; p2score = 0;
;
	sta     _p2score
;
; p1changed = 1;
;
	lda     #$01
	sta     _p1changed
;
; p2changed = 1;
;
	sta     _p2changed
;
; game_state = 0;
;
	lda     #$00
	sta     _game_state
;
; map_id = 0;
;
	sta     _map_id
;
; ppu_off(); 
;
	jsr     _ppu_off
;
; pal_bg(palette); 
;
	lda     #<(_palette)
	ldx     #>(_palette)
	jsr     _pal_bg
;
; pal_spr(palette); 
;
	lda     #<(_palette)
	ldx     #>(_palette)
	jsr     _pal_spr
;
; vram_adr(NTADR_A(0,26)); 
;
	ldx     #$23
	lda     #$40
	jsr     _vram_adr
;
; drawl_title_screen();
;
	jsr     _drawl_title_screen
;
; ppu_on_all(); 
;
L0132:	jsr     _ppu_on_all
;
; if (game_state == 0) {
;
L00D9:	lda     _game_state
	jne     L00E6
;
; ppu_wait_nmi();
;
	jsr     _ppu_wait_nmi
;
; pad1 = pad_poll(0);
;
	lda     #$00
	jsr     _pad_poll
	sta     _pad1
;
; if (pad1 & PAD_LEFT)  map_id = 0;
;
	and     #$02
	beq     L00DA
	lda     #$00
	sta     _map_id
;
; if (pad1 & PAD_UP)    map_id = 1; 
;
L00DA:	lda     _pad1
	and     #$08
	beq     L00DB
	lda     #$01
	sta     _map_id
;
; if (pad1 & PAD_RIGHT) map_id = 2;
;
L00DB:	lda     _pad1
	and     #$01
	beq     L0008
	lda     #$02
	sta     _map_id
;
; oam_clear();
;
L0008:	jsr     _oam_clear
;
; oam_spr(80 + (map_id * 48), 100, 0x41, 0); 
;
	jsr     decsp3
	lda     _map_id
	jsr     pusha0
	lda     #$30
	jsr     tosumula0
	clc
	adc     #$50
	ldy     #$02
	sta     (c_sp),y
	lda     #$64
	dey
	sta     (c_sp),y
	lda     #$41
	dey
	sta     (c_sp),y
	tya
	jsr     _oam_spr
;
; if (pad1 & PAD_START || pad1 & PAD_A) {
;
	lda     _pad1
	and     #$10
	bne     L00DC
	lda     _pad1
	and     #$80
	beq     L00D9
;
; ppu_off();
;
L00DC:	jsr     _ppu_off
;
; vram_adr(NTADR_A(0,0)); 
;
	ldx     #$20
	lda     #$00
	jsr     _vram_adr
;
; for(i = 0; i < 254; i++) {
;
	lda     #$00
	sta     _i
L00DD:	lda     _i
	cmp     #$FE
	bcs     L00DE
;
; vram_put(0x00); 
;
	lda     #$00
	jsr     _vram_put
;
; for(i = 0; i < 254; i++) {
;
	inc     _i
	jmp     L00DD
;
; for(i = 0; i < 240; i++) {
;
L00DE:	lda     #$00
	sta     _i
L00DF:	lda     _i
	cmp     #$F0
	bcs     L0012
;
; vram_put(0x00); 
;
	lda     #$00
	jsr     _vram_put
;
; for(i = 0; i < 240; i++) {
;
	inc     _i
	jmp     L00DF
;
; vram_adr(NTADR_A(0,26));
;
L0012:	ldx     #$23
	lda     #$40
	jsr     _vram_adr
;
; for (i=0; i<32; ++i) vram_put(0x01);
;
	lda     #$00
	sta     _i
L00E0:	lda     _i
	cmp     #$20
	bcs     L00E1
	lda     #$01
	jsr     _vram_put
	inc     _i
	jmp     L00E0
;
; for (i = 0; i < 3; i++){
;
L00E1:	lda     #$00
	sta     _i
L00E2:	lda     _i
	cmp     #$03
	jcs     L00E5
;
; vram_adr(NTADR_A((maps[map_id][i].x) / 8 , maps[map_id][i].y / 8));
;
	ldx     #$00
	lda     _map_id
	jsr     mulax9
	clc
	adc     #<(_maps)
	sta     sreg
	txa
	adc     #>(_maps)
	sta     sreg+1
	ldx     #$00
	lda     _i
	jsr     mulax3
	clc
	adc     sreg
	sta     ptr1
	txa
	adc     sreg+1
	sta     ptr1+1
	ldy     #$01
	ldx     #$00
	lda     (ptr1),y
	lsr     a
	lsr     a
	lsr     a
	jsr     aslax4
	stx     tmp1
	asl     a
	rol     tmp1
	ldx     tmp1
	sta     ptr2
	stx     ptr2+1
	ldx     #$00
	lda     _map_id
	jsr     mulax9
	clc
	adc     #<(_maps)
	sta     sreg
	txa
	adc     #>(_maps)
	sta     sreg+1
	ldx     #$00
	lda     _i
	jsr     mulax3
	clc
	adc     sreg
	sta     ptr1
	txa
	adc     sreg+1
	sta     ptr1+1
	dey
	lda     (ptr1),y
	lsr     a
	lsr     a
	lsr     a
	ora     ptr2
	pha
	lda     ptr2+1
	ora     #$20
	tax
	pla
	jsr     _vram_adr
;
; for(j = 0; j < (maps[map_id][i].w / 8); j++){
;
	lda     #$00
	sta     _j
	tax
L00E3:	lda     _map_id
	jsr     mulax9
	clc
	adc     #<(_maps)
	sta     sreg
	txa
	adc     #>(_maps)
	sta     sreg+1
	ldx     #$00
	lda     _i
	jsr     mulax3
	clc
	adc     sreg
	sta     ptr1
	txa
	adc     sreg+1
	sta     ptr1+1
	ldy     #$02
	lda     (ptr1),y
	lsr     a
	lsr     a
	lsr     a
	cmp     _j
	bcc     L00E4
	beq     L00E4
;
; vram_put(0x01);
;
	lda     #$01
	jsr     _vram_put
;
; for(j = 0; j < (maps[map_id][i].w / 8); j++){
;
	ldx     #$00
	inc     _j
	jmp     L00E3
;
; for (i = 0; i < 3; i++){
;
L00E4:	inc     _i
	jmp     L00E2
;
; p1_x = 40; p1_y = 180;
;
L00E5:	lda     #$28
	sta     _p1_x
	lda     #$B4
	sta     _p1_y
;
; p2_x = 200; p2_y = 180;
;
	lda     #$C8
	sta     _p2_x
	lda     #$B4
	sta     _p2_y
;
; game_state = 1;
;
	lda     #$01
	sta     _game_state
;
; else if (game_state == 1) {
;
	jmp     L0132
L00E6:	lda     _game_state
	cmp     #$01
	jne     L00D9
;
; const struct Platform* platforms = maps[map_id];
;
	ldx     #$00
	lda     _map_id
	jsr     mulax9
	clc
	adc     #<(_maps)
	tay
	txa
	adc     #>(_maps)
	tax
	tya
	jsr     pushax
;
; unsigned char p1_tens = p1score / 10;
;
	lda     _p1score
	jsr     pusha0
	lda     #$0A
	jsr     tosudiva0
	jsr     pusha
;
; unsigned char p1_ones = p1score % 10;
;
	lda     _p1score
	jsr     pusha0
	lda     #$0A
	jsr     tosumoda0
	jsr     pusha
;
; unsigned char p2_tens = p2score / 10;
;
	lda     _p2score
	jsr     pusha0
	lda     #$0A
	jsr     tosudiva0
	jsr     pusha
;
; unsigned char p2_ones = p2score % 10;
;
	lda     _p2score
	jsr     pusha0
	lda     #$0A
	jsr     tosumoda0
	jsr     pusha
;
; ppu_wait_nmi(); 
;
	jsr     _ppu_wait_nmi
;
; oam_clear(); 
;
	jsr     _oam_clear
;
; if (p1changed) {
;
	lda     _p1changed
	beq     L0023
;
; vram_adr(NTADR_A(2, 0));      
;
	ldx     #$20
	lda     #$02
	jsr     _vram_adr
;
; vram_put(0x30 + p1_tens);     
;
	ldy     #$03
	lda     (c_sp),y
	clc
	adc     #$30
	jsr     _vram_put
;
; vram_put(0x30 + p1_ones);     
;
	ldy     #$02
	lda     (c_sp),y
	clc
	adc     #$30
	jsr     _vram_put
;
; p1changed = 0;
;
	lda     #$00
	sta     _p1changed
;
; if (p2changed) {
;
L0023:	lda     _p2changed
	beq     L0026
;
; vram_adr(NTADR_A(26, 0));
;
	ldx     #$20
	lda     #$1A
	jsr     _vram_adr
;
; vram_put(0x30 + p2_tens);
;
	ldy     #$01
	lda     (c_sp),y
	clc
	adc     #$30
	jsr     _vram_put
;
; vram_put(0x30 + p2_ones);
;
	ldy     #$00
	lda     (c_sp),y
	clc
	adc     #$30
	jsr     _vram_put
;
; p2changed = 0; 
;
	lda     #$00
	sta     _p2changed
;
; scroll(0, 0);
;
L0026:	jsr     push0
	jsr     _scroll
;
; pad1 = pad_poll(0);
;
	lda     #$00
	jsr     _pad_poll
	sta     _pad1
;
; pad2 = pad_poll(1);
;
	lda     #$01
	jsr     _pad_poll
	sta     _pad2
;
; if(pad1 & PAD_LEFT){
;
	lda     _pad1
	and     #$02
	beq     L00E7
;
; p1_facing = 0;
;
	lda     #$00
	sta     _p1_facing
;
; if(p1_dx > -3) --p1_dx;
;
	lda     _p1_dx
	sec
	sbc     #$FE
	bvs     L002C
	eor     #$80
L002C:	bpl     L00EA
	dec     _p1_dx
	bpl     L00EA
;
; else if(pad1 & PAD_RIGHT){
;
	jmp     L00EA
L00E7:	lda     _pad1
	and     #$01
	beq     L00E8
;
; p1_facing = 1;
;
	lda     #$01
	sta     _p1_facing
;
; if(p1_dx < 3) ++p1_dx;
;
	lda     _p1_dx
	sec
	sbc     #$03
	bvc     L0032
	eor     #$80
L0032:	bpl     L00EA
	inc     _p1_dx
	bpl     L00EA
;
; else{
;
	jmp     L00EA
;
; if(p1_dx > 0) --p1_dx;
;
L00E8:	lda     _p1_dx
	sec
	sbc     #$01
	bvs     L0037
	eor     #$80
L0037:	bpl     L00E9
	dec     _p1_dx
;
; if(p1_dx < 0) ++p1_dx;
;
L00E9:	lda     _p1_dx
	asl     a
	bcc     L00EA
	inc     _p1_dx
;
; if(p1_dx > 0 && p1_x < 245) p1_x += p1_dx;
;
L00EA:	lda     _p1_dx
	sec
	sbc     #$01
	bvs     L003E
	eor     #$80
L003E:	bpl     L00F0
	lda     _p1_x
	cmp     #$F5
	bcs     L00F0
	lda     _p1_dx
	clc
	adc     _p1_x
	sta     _p1_x
;
; if(p1_dx < 0 && p1_x > 10) p1_x += p1_dx;
;
L00F0:	lda     _p1_dx
	asl     a
	bcc     L00F6
	lda     _p1_x
	cmp     #$0B
	bcc     L00F6
	lda     _p1_dx
	clc
	adc     _p1_x
	sta     _p1_x
;
; if((pad1 & PAD_A) && p1grounded){
;
L00F6:	lda     _pad1
	and     #$80
	beq     L00FA
	lda     _p1grounded
	beq     L00FA
;
; p1_dy = -8;
;
	lda     #$F8
	sta     _p1_dy
;
; p1grounded = 0;
;
	lda     #$00
	sta     _p1grounded
;
; if (p1_dy < 4) p1_dy += 1;
;
L00FA:	lda     _p1_dy
	sec
	sbc     #$04
	bvc     L004F
	eor     #$80
L004F:	bpl     L00FB
	inc     _p1_dy
;
; p1_y += p1_dy;
;
L00FB:	lda     _p1_dy
	clc
	adc     _p1_y
	sta     _p1_y
;
; p1grounded = 0;
;
	lda     #$00
	sta     _p1grounded
;
; if(p1_dy >= 0){
;
	ldx     _p1_dy
	jmi     L0102
;
; if(p1_y >= FLOOR_Y){
;
	lda     _p1_y
	cmp     #$C0
	lda     #$00
	bcc     L00FF
;
; p1_y = FLOOR_Y;
;
	lda     #$C0
	sta     _p1_y
;
; p1_dy = 0;
;
	lda     #$00
	sta     _p1_dy
;
; p1grounded = 1;
;
	lda     #$01
	sta     _p1grounded
;
; for(i = 0; i < 3; i++){
;
	lda     #$00
L00FF:	sta     _i
L0100:	lda     _i
	cmp     #$03
	jcs     L0102
;
; if (p1_y >= (platforms[i].y-22) && p1_y < (platforms[i].y-22) + 8){
;
	lda     _p1_y
	jsr     pusha0
	lda     _i
	jsr     mulax3
	clc
	ldy     #$06
	adc     (c_sp),y
	sta     ptr1
	txa
	iny
	adc     (c_sp),y
	sta     ptr1+1
	ldy     #$01
	ldx     #$00
	lda     (ptr1),y
	sec
	sbc     #$16
	bcs     L005A
	dex
L005A:	jsr     tosicmp
	jmi     L0101
	lda     _p1_y
	jsr     pusha0
	lda     _i
	jsr     mulax3
	clc
	ldy     #$06
	adc     (c_sp),y
	sta     ptr1
	txa
	iny
	adc     (c_sp),y
	sta     ptr1+1
	ldy     #$01
	ldx     #$00
	lda     (ptr1),y
	sec
	sbc     #$16
	bcs     L005C
	dex
L005C:	clc
	adc     #$08
	bcc     L005D
	inx
L005D:	jsr     tosicmp
	jpl     L0101
;
; if (p1_x + 8 > platforms[i].x && p1_x < platforms[i].x + platforms[i].w){
;
	ldx     #$00
	lda     _p1_x
	clc
	adc     #$08
	bcc     L0061
	inx
L0061:	jsr     pushax
	ldx     #$00
	lda     _i
	jsr     mulax3
	clc
	ldy     #$06
	adc     (c_sp),y
	sta     ptr1
	txa
	iny
	adc     (c_sp),y
	sta     ptr1+1
	ldx     #$00
	lda     (ptr1,x)
	jsr     tosicmp0
	bmi     L0101
	beq     L0101
	lda     _p1_x
	jsr     pusha0
	lda     _i
	jsr     mulax3
	clc
	ldy     #$06
	adc     (c_sp),y
	sta     ptr1
	txa
	iny
	adc     (c_sp),y
	sta     ptr1+1
	ldy     #$00
	lda     (ptr1),y
	sta     sreg
	ldx     #$00
	lda     _i
	jsr     mulax3
	clc
	ldy     #$06
	adc     (c_sp),y
	sta     ptr1
	txa
	iny
	adc     (c_sp),y
	sta     ptr1+1
	ldy     #$02
	ldx     #$00
	lda     (ptr1),y
	clc
	adc     sreg
	bcc     L00D1
	inx
L00D1:	jsr     tosicmp
	bpl     L0101
;
; p1_y = (platforms[i].y-22);
;
	ldx     #$00
	lda     _i
	jsr     mulax3
	clc
	ldy     #$04
	adc     (c_sp),y
	sta     ptr1
	txa
	iny
	adc     (c_sp),y
	sta     ptr1+1
	ldy     #$01
	lda     (ptr1),y
	sec
	sbc     #$16
	sta     _p1_y
;
; p1_dy = 0;
;
	lda     #$00
	sta     _p1_dy
;
; p1grounded = 1;
;
	sty     _p1grounded
;
; for(i = 0; i < 3; i++){
;
L0101:	inc     _i
	jmp     L0100
;
; if((pad1 & PAD_B) && (b1 == 0)){
;
L0102:	lda     _pad1
	and     #$40
	beq     L0107
	lda     _b1
	bne     L0107
;
; b1_y = p1_y + 2;
;
	lda     _p1_y
	clc
	adc     #$02
	sta     _b1_y
;
; b1 = 1;
;
	lda     #$01
	sta     _b1
;
; if(p1_facing == 0){
;
	lda     _p1_facing
	bne     L0106
;
; b1_x = p1_x - 4;
;
	lda     _p1_x
	sec
	sbc     #$04
	sta     _b1_x
;
; b1_vx = -4;
;
	lda     #$FC
	sta     _b1_vx
;
; p1_dx = 8;
;
	lda     #$08
;
; } else {
;
	jmp     L00D4
;
; b1_x = p1_x + 4;
;
L0106:	lda     _p1_x
	clc
	adc     #$04
	sta     _b1_x
;
; b1_vx = 4;
;
	lda     #$04
	sta     _b1_vx
;
; p1_dx = -8;
;
	lda     #$F8
L00D4:	sta     _p1_dx
;
; if(b1 == 1){
;
L0107:	lda     _b1
	cmp     #$01
	bne     L010A
;
; oam_spr(b1_x, b1_y, 0x02, 0);
;
	jsr     decsp3
	lda     _b1_x
	ldy     #$02
	sta     (c_sp),y
	lda     _b1_y
	dey
	sta     (c_sp),y
	lda     #$02
	dey
	sta     (c_sp),y
	tya
	jsr     _oam_spr
;
; b1_x += b1_vx;
;
	lda     _b1_vx
	clc
	adc     _b1_x
	sta     _b1_x
;
; if(b1_x > 250) b1 = 0;
;
	cmp     #$FB
	bcc     L010A
	lda     #$00
	sta     _b1
;
; if(pad2 & PAD_LEFT){
;
L010A:	lda     _pad2
	and     #$02
	beq     L010B
;
; p2_facing = 0;
;
	lda     #$00
	sta     _p2_facing
;
; if(p2_dx > -3) --p2_dx;
;
	lda     _p2_dx
	sec
	sbc     #$FE
	bvs     L0075
	eor     #$80
L0075:	bpl     L010E
	dec     _p2_dx
	bpl     L010E
;
; else if(pad2 & PAD_RIGHT){
;
	jmp     L010E
L010B:	lda     _pad2
	and     #$01
	beq     L010C
;
; p2_facing = 1;
;
	lda     #$01
	sta     _p2_facing
;
; if(p2_dx < 3) ++p2_dx;
;
	lda     _p2_dx
	sec
	sbc     #$03
	bvc     L007B
	eor     #$80
L007B:	bpl     L010E
	inc     _p2_dx
	bpl     L010E
;
; else{
;
	jmp     L010E
;
; if(p2_dx > 0) --p2_dx;
;
L010C:	lda     _p2_dx
	sec
	sbc     #$01
	bvs     L0080
	eor     #$80
L0080:	bpl     L010D
	dec     _p2_dx
;
; if(p2_dx < 0) ++p2_dx;
;
L010D:	lda     _p2_dx
	asl     a
	bcc     L010E
	inc     _p2_dx
;
; if(p2_dx > 0 && p2_x < 245) p2_x += p2_dx;
;
L010E:	lda     _p2_dx
	sec
	sbc     #$01
	bvs     L0087
	eor     #$80
L0087:	bpl     L0114
	lda     _p2_x
	cmp     #$F5
	bcs     L0114
	lda     _p2_dx
	clc
	adc     _p2_x
	sta     _p2_x
;
; if(p2_dx < 0 && p2_x > 10) p2_x += p2_dx;
;
L0114:	lda     _p2_dx
	asl     a
	bcc     L011A
	lda     _p2_x
	cmp     #$0B
	bcc     L011A
	lda     _p2_dx
	clc
	adc     _p2_x
	sta     _p2_x
;
; if((pad2 & PAD_A) && p2grounded){
;
L011A:	lda     _pad2
	and     #$80
	beq     L011E
	lda     _p2grounded
	beq     L011E
;
; p2_dy = -8;
;
	lda     #$F8
	sta     _p2_dy
;
; p2grounded = 0;
;
	lda     #$00
	sta     _p2grounded
;
; if (p2_dy < 4) p2_dy += 1;
;
L011E:	lda     _p2_dy
	sec
	sbc     #$04
	bvc     L0098
	eor     #$80
L0098:	bpl     L011F
	inc     _p2_dy
;
; p2_y += p2_dy;
;
L011F:	lda     _p2_dy
	clc
	adc     _p2_y
	sta     _p2_y
;
; p2grounded = 0;
;
	lda     #$00
	sta     _p2grounded
;
; if(p2_dy >= 0){
;
	ldx     _p2_dy
	jmi     L0126
;
; if(p2_y >= FLOOR_Y){
;
	lda     _p2_y
	cmp     #$C0
	lda     #$00
	bcc     L0123
;
; p2_y = FLOOR_Y;
;
	lda     #$C0
	sta     _p2_y
;
; p2_dy = 0;
;
	lda     #$00
	sta     _p2_dy
;
; p2grounded = 1;
;
	lda     #$01
	sta     _p2grounded
;
; for(i = 0; i < 3; i++){
;
	lda     #$00
L0123:	sta     _i
L0124:	lda     _i
	cmp     #$03
	jcs     L0126
;
; if (p2_y >= (platforms[i].y-22) && p2_y < (platforms[i].y-22) + 8){
;
	lda     _p2_y
	jsr     pusha0
	lda     _i
	jsr     mulax3
	clc
	ldy     #$06
	adc     (c_sp),y
	sta     ptr1
	txa
	iny
	adc     (c_sp),y
	sta     ptr1+1
	ldy     #$01
	ldx     #$00
	lda     (ptr1),y
	sec
	sbc     #$16
	bcs     L00A3
	dex
L00A3:	jsr     tosicmp
	jmi     L0125
	lda     _p2_y
	jsr     pusha0
	lda     _i
	jsr     mulax3
	clc
	ldy     #$06
	adc     (c_sp),y
	sta     ptr1
	txa
	iny
	adc     (c_sp),y
	sta     ptr1+1
	ldy     #$01
	ldx     #$00
	lda     (ptr1),y
	sec
	sbc     #$16
	bcs     L00A5
	dex
L00A5:	clc
	adc     #$08
	bcc     L00A6
	inx
L00A6:	jsr     tosicmp
	jpl     L0125
;
; if (p2_x + 8 > platforms[i].x && p2_x < platforms[i].x + platforms[i].w){
;
	ldx     #$00
	lda     _p2_x
	clc
	adc     #$08
	bcc     L00AA
	inx
L00AA:	jsr     pushax
	ldx     #$00
	lda     _i
	jsr     mulax3
	clc
	ldy     #$06
	adc     (c_sp),y
	sta     ptr1
	txa
	iny
	adc     (c_sp),y
	sta     ptr1+1
	ldx     #$00
	lda     (ptr1,x)
	jsr     tosicmp0
	bmi     L0125
	beq     L0125
	lda     _p2_x
	jsr     pusha0
	lda     _i
	jsr     mulax3
	clc
	ldy     #$06
	adc     (c_sp),y
	sta     ptr1
	txa
	iny
	adc     (c_sp),y
	sta     ptr1+1
	ldy     #$00
	lda     (ptr1),y
	sta     sreg
	ldx     #$00
	lda     _i
	jsr     mulax3
	clc
	ldy     #$06
	adc     (c_sp),y
	sta     ptr1
	txa
	iny
	adc     (c_sp),y
	sta     ptr1+1
	ldy     #$02
	ldx     #$00
	lda     (ptr1),y
	clc
	adc     sreg
	bcc     L00D2
	inx
L00D2:	jsr     tosicmp
	bpl     L0125
;
; p2_y = (platforms[i].y-22);
;
	ldx     #$00
	lda     _i
	jsr     mulax3
	clc
	ldy     #$04
	adc     (c_sp),y
	sta     ptr1
	txa
	iny
	adc     (c_sp),y
	sta     ptr1+1
	ldy     #$01
	lda     (ptr1),y
	sec
	sbc     #$16
	sta     _p2_y
;
; p2_dy = 0;
;
	lda     #$00
	sta     _p2_dy
;
; p2grounded = 1;
;
	sty     _p2grounded
;
; for(i = 0; i < 3; i++){
;
L0125:	inc     _i
	jmp     L0124
;
; if((pad2 & PAD_B) && (b2 == 0)){
;
L0126:	lda     _pad2
	and     #$40
	beq     L012B
	lda     _b2
	bne     L012B
;
; b2_y = p2_y + 2;
;
	lda     _p2_y
	clc
	adc     #$02
	sta     _b2_y
;
; b2 = 1;
;
	lda     #$01
	sta     _b2
;
; if(p2_facing == 0){
;
	lda     _p2_facing
	bne     L012A
;
; b2_x = p2_x - 4;
;
	lda     _p2_x
	sec
	sbc     #$04
	sta     _b2_x
;
; b2_vx = -4;
;
	lda     #$FC
	sta     _b2_vx
;
; p2_dx = 8;
;
	lda     #$08
;
; } else {
;
	jmp     L00D6
;
; b2_x = p2_x + 4;
;
L012A:	lda     _p2_x
	clc
	adc     #$04
	sta     _b2_x
;
; b2_vx = 4;
;
	lda     #$04
	sta     _b2_vx
;
; p2_dx = -8;
;
	lda     #$F8
L00D6:	sta     _p2_dx
;
; if(b2 == 1){
;
L012B:	lda     _b2
	cmp     #$01
	bne     L012E
;
; oam_spr(b2_x, b2_y, 0x02, 0);
;
	jsr     decsp3
	lda     _b2_x
	ldy     #$02
	sta     (c_sp),y
	lda     _b2_y
	dey
	sta     (c_sp),y
	lda     #$02
	dey
	sta     (c_sp),y
	tya
	jsr     _oam_spr
;
; b2_x += b2_vx;
;
	lda     _b2_vx
	clc
	adc     _b2_x
	sta     _b2_x
;
; if(b2_x > 250) b2 = 0;
;
	cmp     #$FB
	bcc     L012E
	lda     #$00
	sta     _b2
;
; if(b1 == 1){
;
L012E:	lda     _b1
	cmp     #$01
	bne     L0130
;
; if( (b1_x >= p2_x) && (b1_x <= p2_x + 15) && (b1_y >= p2_y) && (b1_y <= p2_y + 15) ){
;
	lda     _b1_x
	cmp     _p2_x
	bcc     L0130
	lda     _b1_x
	jsr     pusha0
	lda     _p2_x
	clc
	adc     #$0F
	bcc     L00BE
	ldx     #$01
L00BE:	jsr     tosicmp
	beq     L00D7
	bpl     L0130
L00D7:	lda     _b1_y
	cmp     _p2_y
	bcc     L0130
	lda     _b1_y
	jsr     pusha0
	lda     _p2_y
	clc
	adc     #$0F
	bcc     L00BF
	ldx     #$01
L00BF:	jsr     tosicmp
	bmi     L00C0
	bne     L0130
;
; p1_x = 40;
;
L00C0:	lda     #$28
	sta     _p1_x
;
; p2_x = 200;
;
	lda     #$C8
	sta     _p2_x
;
; p1_y = 200;
;
	sta     _p1_y
;
; p2_y = 200;
;
	sta     _p2_y
;
; b1 = 0;
;
	lda     #$00
	sta     _b1
;
; b2 = 0;
;
	sta     _b2
;
; p1score++;
;
	inc     _p1score
;
; p1changed = 1;
;
	lda     #$01
	sta     _p1changed
;
; if(b2 == 1){
;
L0130:	lda     _b2
	cmp     #$01
	bne     L00C3
;
; if( (b2_x >= p1_x) && (b2_x <= p1_x + 15) && (b2_y >= p1_y) && (b2_y <= p1_y + 15) ){
;
	lda     _b2_x
	cmp     _p1_x
	bcc     L00C3
	lda     _b2_x
	jsr     pusha0
	lda     _p1_x
	clc
	adc     #$0F
	bcc     L00C5
	ldx     #$01
L00C5:	jsr     tosicmp
	beq     L00D8
	bpl     L00C3
L00D8:	lda     _b2_y
	cmp     _p1_y
	bcc     L00C3
	lda     _b2_y
	jsr     pusha0
	lda     _p1_y
	clc
	adc     #$0F
	bcc     L00C6
	ldx     #$01
L00C6:	jsr     tosicmp
	bmi     L00C7
	bne     L00C3
;
; p1_x = 40;
;
L00C7:	lda     #$28
	sta     _p1_x
;
; p2_x = 200;
;
	lda     #$C8
	sta     _p2_x
;
; p1_y = 200;
;
	sta     _p1_y
;
; p2_y = 200;
;
	sta     _p2_y
;
; b1 = 0;
;
	lda     #$00
	sta     _b1
;
; b2 = 0;
;
	sta     _b2
;
; p2score++;
;
	inc     _p2score
;
; p2changed = 1;
;
	lda     #$01
	sta     _p2changed
;
; oam_spr(p1_x, p1_y, 0x41, 0);
;
L00C3:	jsr     decsp3
	lda     _p1_x
	ldy     #$02
	sta     (c_sp),y
	lda     _p1_y
	dey
	sta     (c_sp),y
	lda     #$41
	dey
	sta     (c_sp),y
	tya
	jsr     _oam_spr
;
; oam_spr(p1_x + 8, p1_y, 0x42, 0);
;
	jsr     decsp3
	lda     _p1_x
	clc
	adc     #$08
	ldy     #$02
	sta     (c_sp),y
	lda     _p1_y
	dey
	sta     (c_sp),y
	lda     #$42
	dey
	sta     (c_sp),y
	tya
	jsr     _oam_spr
;
; oam_spr(p1_x, p1_y + 8, 0x43, 0);
;
	jsr     decsp3
	lda     _p1_x
	ldy     #$02
	sta     (c_sp),y
	lda     _p1_y
	clc
	adc     #$08
	dey
	sta     (c_sp),y
	lda     #$43
	dey
	sta     (c_sp),y
	tya
	jsr     _oam_spr
;
; oam_spr(p1_x + 8, p1_y + 8, 0x44, 0);
;
	jsr     decsp3
	lda     _p1_x
	clc
	adc     #$08
	ldy     #$02
	sta     (c_sp),y
	lda     _p1_y
	clc
	adc     #$08
	dey
	sta     (c_sp),y
	lda     #$44
	dey
	sta     (c_sp),y
	tya
	jsr     _oam_spr
;
; oam_spr(p2_x, p2_y, 0x41, 0);
;
	jsr     decsp3
	lda     _p2_x
	ldy     #$02
	sta     (c_sp),y
	lda     _p2_y
	dey
	sta     (c_sp),y
	lda     #$41
	dey
	sta     (c_sp),y
	tya
	jsr     _oam_spr
;
; oam_spr(p2_x + 8, p2_y, 0x42, 0);
;
	jsr     decsp3
	lda     _p2_x
	clc
	adc     #$08
	ldy     #$02
	sta     (c_sp),y
	lda     _p2_y
	dey
	sta     (c_sp),y
	lda     #$42
	dey
	sta     (c_sp),y
	tya
	jsr     _oam_spr
;
; oam_spr(p2_x, p2_y + 8, 0x43, 0);
;
	jsr     decsp3
	lda     _p2_x
	ldy     #$02
	sta     (c_sp),y
	lda     _p2_y
	clc
	adc     #$08
	dey
	sta     (c_sp),y
	lda     #$43
	dey
	sta     (c_sp),y
	tya
	jsr     _oam_spr
;
; oam_spr(p2_x + 8, p2_y + 8, 0x44, 0);
;
	jsr     decsp3
	lda     _p2_x
	clc
	adc     #$08
	ldy     #$02
	sta     (c_sp),y
	lda     _p2_y
	clc
	adc     #$08
	dey
	sta     (c_sp),y
	lda     #$44
	dey
	sta     (c_sp),y
	tya
	jsr     _oam_spr
;
; }
;
	jsr     incsp6
;
; while (1){
;
	jmp     L00D9

.endproc

