;
; File generated by cc65 v 2.19 - Git 4680d68
;
	.fopt		compiler,"cc65 v 2.19 - Git 4680d68"
	.setcpu		"6502"
	.smart		on
	.autoimport	on
	.case		on
	.debuginfo	off
	.importzp	c_sp, sreg, regsave, regbank
	.importzp	tmp1, tmp2, tmp3, tmp4, ptr1, ptr2, ptr3, ptr4
	.macpack	longbranch
	.forceimport	__STARTUP__
	.import		_pal_bg
	.import		_pal_spr
	.import		_ppu_wait_nmi
	.import		_ppu_off
	.import		_ppu_on_all
	.import		_oam_clear
	.import		_oam_spr
	.import		_pad_poll
	.import		_scroll
	.import		_vram_adr
	.import		_vram_put
	.import		_rand
	.export		_i
	.export		_j
	.export		_pad1
	.export		_p1_facing
	.export		_p1grounded
	.export		_p1score
	.export		_p1changed
	.export		_p1_x
	.export		_p1_y
	.export		_b1_x
	.export		_b1_y
	.export		_b1_multi
	.export		_b1
	.export		_p1_dy
	.export		_p1_dx
	.export		_b1_vx
	.export		_pad2
	.export		_p2_facing
	.export		_p2grounded
	.export		_p2score
	.export		_p2changed
	.export		_p2_x
	.export		_p2_y
	.export		_b2_x
	.export		_b2_y
	.export		_b2_multi
	.export		_b2
	.export		_p2_dy
	.export		_p2_dx
	.export		_b2_vx
	.export		_map_id
	.export		_game_state
	.export		_powerup_active
	.export		_random
	.export		_new_random
	.export		_maps
	.export		_palette
	.export		_drawl_title_screen
	.export		_main

.segment	"RODATA"

_maps:
	.byte	$28
	.byte	$B4
	.byte	$30
	.byte	$8C
	.byte	$B4
	.byte	$30
	.byte	$64
	.byte	$9B
	.byte	$20
	.byte	$0A
	.byte	$96
	.byte	$40
	.byte	$B4
	.byte	$96
	.byte	$40
	.byte	$64
	.byte	$B4
	.byte	$30
	.byte	$28
	.byte	$B4
	.byte	$30
	.byte	$64
	.byte	$96
	.byte	$30
	.byte	$A0
	.byte	$78
	.byte	$30
_palette:
	.byte	$0F
	.byte	$16
	.byte	$28
	.byte	$30
	.byte	$00
	.byte	$00
	.byte	$00
	.byte	$00
	.byte	$00
	.byte	$00
	.byte	$00
	.byte	$00
	.byte	$00
	.byte	$00
	.byte	$00
	.byte	$00

.segment	"BSS"

.segment	"ZEROPAGE"
.segment	"ZEROPAGE"
_i:
	.res	1,$00
_j:
	.res	1,$00
_pad1:
	.res	1,$00
_p1_facing:
	.res	1,$00
_p1grounded:
	.res	1,$00
_p1score:
	.res	1,$00
_p1changed:
	.res	1,$00
_p1_x:
	.res	1,$00
_p1_y:
	.res	1,$00
_b1_x:
	.res	1,$00
_b1_y:
	.res	1,$00
_b1_multi:
	.res	1,$00
_b1:
	.res	1,$00
_p1_dy:
	.res	1,$00
_p1_dx:
	.res	1,$00
_b1_vx:
	.res	1,$00
_pad2:
	.res	1,$00
_p2_facing:
	.res	1,$00
_p2grounded:
	.res	1,$00
_p2score:
	.res	1,$00
_p2changed:
	.res	1,$00
_p2_x:
	.res	1,$00
_p2_y:
	.res	1,$00
_b2_x:
	.res	1,$00
_b2_y:
	.res	1,$00
_b2_multi:
	.res	1,$00
_b2:
	.res	1,$00
_p2_dy:
	.res	1,$00
_p2_dx:
	.res	1,$00
_b2_vx:
	.res	1,$00
_map_id:
	.res	1,$00
_game_state:
	.res	1,$00
_powerup_active:
	.res	1,$00
_random:
	.res	1,$00
_new_random:
	.res	1,$00

; ---------------------------------------------------------------
; void __near__ drawl_title_screen (void)
; ---------------------------------------------------------------

.segment	"CODE"

.proc	_drawl_title_screen: near

.segment	"CODE"

;
; vram_adr(NTADR_A(10, 14)); 
;
	ldx     #$21
	lda     #$CA
	jsr     _vram_adr
;
; vram_put(0x31); 
;
	lda     #$31
	jsr     _vram_put
;
; vram_adr(NTADR_A(16, 14)); 
;
	ldx     #$21
	lda     #$D0
	jsr     _vram_adr
;
; vram_put(0x32); 
;
	lda     #$32
	jsr     _vram_put
;
; vram_adr(NTADR_A(22, 14));
;
	ldx     #$21
	lda     #$D6
	jsr     _vram_adr
;
; vram_put(0x33);
;
	lda     #$33
	jmp     _vram_put

.endproc

; ---------------------------------------------------------------
; void __near__ main (void)
; ---------------------------------------------------------------

.segment	"CODE"

.proc	_main: near

.segment	"CODE"

;
; p1_x = 40;
;
	lda     #$28
	sta     _p1_x
;
; p2_x = 200;
;
	lda     #$C8
	sta     _p2_x
;
; p1_y = 200;
;
	sta     _p1_y
;
; p2_y = 200;
;
	sta     _p2_y
;
; p1_dy = 0;
;
	lda     #$00
	sta     _p1_dy
;
; p1_dx = 0;
;
	sta     _p1_dx
;
; p2_dy = 0;
;
	sta     _p2_dy
;
; p2_dx = 0;
;
	sta     _p2_dx
;
; p1score = 0;
;
	sta     _p1score
;
; p2score = 0;
;
	sta     _p2score
;
; p1changed = 1;
;
	lda     #$01
	sta     _p1changed
;
; p2changed = 1;
;
	sta     _p2changed
;
; b1_multi = 1;
;
	sta     _b1_multi
;
; b2_multi = 1;
;
	sta     _b2_multi
;
; game_state = 0;
;
	lda     #$00
	sta     _game_state
;
; map_id = 0;
;
	sta     _map_id
;
; powerup_active = 0;
;
	sta     _powerup_active
;
; new_random = 0;
;
	sta     _new_random
;
; random = (rand() % (150 - 50 + 1)) + 50;
;
	jsr     _rand
	jsr     pushax
	ldx     #$00
	lda     #$65
	jsr     tosmoda0
	clc
	adc     #$32
	sta     _random
;
; ppu_off(); 
;
	jsr     _ppu_off
;
; pal_bg(palette); 
;
	lda     #<(_palette)
	ldx     #>(_palette)
	jsr     _pal_bg
;
; pal_spr(palette); 
;
	lda     #<(_palette)
	ldx     #>(_palette)
	jsr     _pal_spr
;
; vram_adr(NTADR_A(0,26)); 
;
	ldx     #$23
	lda     #$40
	jsr     _vram_adr
;
; drawl_title_screen();
;
	jsr     _drawl_title_screen
;
; ppu_on_all(); 
;
L0167:	jsr     _ppu_on_all
;
; if (game_state == 0) {
;
L0102:	lda     _game_state
	jne     L010F
;
; ppu_wait_nmi();
;
	jsr     _ppu_wait_nmi
;
; pad1 = pad_poll(0);
;
	lda     #$00
	jsr     _pad_poll
	sta     _pad1
;
; if (pad1 & PAD_LEFT)  map_id = 0;
;
	and     #$02
	beq     L0103
	lda     #$00
	sta     _map_id
;
; if (pad1 & PAD_UP)    map_id = 1; 
;
L0103:	lda     _pad1
	and     #$08
	beq     L0104
	lda     #$01
	sta     _map_id
;
; if (pad1 & PAD_RIGHT) map_id = 2;
;
L0104:	lda     _pad1
	and     #$01
	beq     L0009
	lda     #$02
	sta     _map_id
;
; oam_clear();
;
L0009:	jsr     _oam_clear
;
; oam_spr(80 + (map_id * 48), 100, 0x41, 0); 
;
	jsr     decsp3
	lda     _map_id
	jsr     pusha0
	lda     #$30
	jsr     tosumula0
	clc
	adc     #$50
	ldy     #$02
	sta     (c_sp),y
	lda     #$64
	dey
	sta     (c_sp),y
	lda     #$41
	dey
	sta     (c_sp),y
	tya
	jsr     _oam_spr
;
; if (pad1 & PAD_START || pad1 & PAD_A) {
;
	lda     _pad1
	and     #$10
	bne     L0105
	lda     _pad1
	and     #$80
	beq     L0102
;
; ppu_off();
;
L0105:	jsr     _ppu_off
;
; vram_adr(NTADR_A(0,0)); 
;
	ldx     #$20
	lda     #$00
	jsr     _vram_adr
;
; for(i = 0; i < 254; i++) {
;
	lda     #$00
	sta     _i
L0106:	lda     _i
	cmp     #$FE
	bcs     L0107
;
; vram_put(0x00); 
;
	lda     #$00
	jsr     _vram_put
;
; for(i = 0; i < 254; i++) {
;
	inc     _i
	jmp     L0106
;
; for(i = 0; i < 240; i++) {
;
L0107:	lda     #$00
	sta     _i
L0108:	lda     _i
	cmp     #$F0
	bcs     L0013
;
; vram_put(0x00); 
;
	lda     #$00
	jsr     _vram_put
;
; for(i = 0; i < 240; i++) {
;
	inc     _i
	jmp     L0108
;
; vram_adr(NTADR_A(0,26));
;
L0013:	ldx     #$23
	lda     #$40
	jsr     _vram_adr
;
; for (i=0; i<32; ++i) vram_put(0x01);
;
	lda     #$00
	sta     _i
L0109:	lda     _i
	cmp     #$20
	bcs     L010A
	lda     #$01
	jsr     _vram_put
	inc     _i
	jmp     L0109
;
; for (i = 0; i < 3; i++){
;
L010A:	lda     #$00
	sta     _i
L010B:	lda     _i
	cmp     #$03
	jcs     L010E
;
; vram_adr(NTADR_A((maps[map_id][i].x) / 8 , maps[map_id][i].y / 8));
;
	ldx     #$00
	lda     _map_id
	jsr     mulax9
	clc
	adc     #<(_maps)
	sta     sreg
	txa
	adc     #>(_maps)
	sta     sreg+1
	ldx     #$00
	lda     _i
	jsr     mulax3
	clc
	adc     sreg
	sta     ptr1
	txa
	adc     sreg+1
	sta     ptr1+1
	ldy     #$01
	ldx     #$00
	lda     (ptr1),y
	lsr     a
	lsr     a
	lsr     a
	jsr     aslax4
	stx     tmp1
	asl     a
	rol     tmp1
	ldx     tmp1
	sta     ptr2
	stx     ptr2+1
	ldx     #$00
	lda     _map_id
	jsr     mulax9
	clc
	adc     #<(_maps)
	sta     sreg
	txa
	adc     #>(_maps)
	sta     sreg+1
	ldx     #$00
	lda     _i
	jsr     mulax3
	clc
	adc     sreg
	sta     ptr1
	txa
	adc     sreg+1
	sta     ptr1+1
	dey
	lda     (ptr1),y
	lsr     a
	lsr     a
	lsr     a
	ora     ptr2
	pha
	lda     ptr2+1
	ora     #$20
	tax
	pla
	jsr     _vram_adr
;
; for(j = 0; j < (maps[map_id][i].w / 8); j++){
;
	lda     #$00
	sta     _j
	tax
L010C:	lda     _map_id
	jsr     mulax9
	clc
	adc     #<(_maps)
	sta     sreg
	txa
	adc     #>(_maps)
	sta     sreg+1
	ldx     #$00
	lda     _i
	jsr     mulax3
	clc
	adc     sreg
	sta     ptr1
	txa
	adc     sreg+1
	sta     ptr1+1
	ldy     #$02
	lda     (ptr1),y
	lsr     a
	lsr     a
	lsr     a
	cmp     _j
	bcc     L010D
	beq     L010D
;
; vram_put(0x01);
;
	lda     #$01
	jsr     _vram_put
;
; for(j = 0; j < (maps[map_id][i].w / 8); j++){
;
	ldx     #$00
	inc     _j
	jmp     L010C
;
; for (i = 0; i < 3; i++){
;
L010D:	inc     _i
	jmp     L010B
;
; p1_x = 40; p1_y = 180;
;
L010E:	lda     #$28
	sta     _p1_x
	lda     #$B4
	sta     _p1_y
;
; p2_x = 200; p2_y = 180;
;
	lda     #$C8
	sta     _p2_x
	lda     #$B4
	sta     _p2_y
;
; game_state = 1;
;
	lda     #$01
	sta     _game_state
;
; else if (game_state == 1) {
;
	jmp     L0167
L010F:	lda     _game_state
	cmp     #$01
	jne     L0102
;
; const struct Platform* platforms = maps[map_id];
;
	ldx     #$00
	lda     _map_id
	jsr     mulax9
	clc
	adc     #<(_maps)
	tay
	txa
	adc     #>(_maps)
	tax
	tya
	jsr     pushax
;
; unsigned char p1_tens = p1score / 10;
;
	lda     _p1score
	jsr     pusha0
	lda     #$0A
	jsr     tosudiva0
	jsr     pusha
;
; unsigned char p1_ones = p1score % 10;
;
	lda     _p1score
	jsr     pusha0
	lda     #$0A
	jsr     tosumoda0
	jsr     pusha
;
; unsigned char p2_tens = p2score / 10;
;
	lda     _p2score
	jsr     pusha0
	lda     #$0A
	jsr     tosudiva0
	jsr     pusha
;
; unsigned char p2_ones = p2score % 10;
;
	lda     _p2score
	jsr     pusha0
	lda     #$0A
	jsr     tosumoda0
	jsr     pusha
;
; ppu_wait_nmi(); 
;
	jsr     _ppu_wait_nmi
;
; oam_clear(); 
;
	jsr     _oam_clear
;
; if (p1changed) {
;
	lda     _p1changed
	beq     L0024
;
; vram_adr(NTADR_A(2, 1));      
;
	ldx     #$20
	lda     #$22
	jsr     _vram_adr
;
; vram_put(0x30 + p1_tens);     
;
	ldy     #$03
	lda     (c_sp),y
	clc
	adc     #$30
	jsr     _vram_put
;
; vram_put(0x30 + p1_ones);     
;
	ldy     #$02
	lda     (c_sp),y
	clc
	adc     #$30
	jsr     _vram_put
;
; p1changed = 0;
;
	lda     #$00
	sta     _p1changed
;
; if (p2changed) {
;
L0024:	lda     _p2changed
	beq     L0027
;
; vram_adr(NTADR_A(26, 1));
;
	ldx     #$20
	lda     #$3A
	jsr     _vram_adr
;
; vram_put(0x30 + p2_tens);
;
	ldy     #$01
	lda     (c_sp),y
	clc
	adc     #$30
	jsr     _vram_put
;
; vram_put(0x30 + p2_ones);
;
	ldy     #$00
	lda     (c_sp),y
	clc
	adc     #$30
	jsr     _vram_put
;
; p2changed = 0; 
;
	lda     #$00
	sta     _p2changed
;
; scroll(0, 0);
;
L0027:	jsr     push0
	jsr     _scroll
;
; pad1 = pad_poll(0);
;
	lda     #$00
	jsr     _pad_poll
	sta     _pad1
;
; pad2 = pad_poll(1);
;
	lda     #$01
	jsr     _pad_poll
	sta     _pad2
;
; if(pad1 & PAD_LEFT){
;
	lda     _pad1
	and     #$02
	beq     L0110
;
; p1_facing = 0;
;
	lda     #$00
	sta     _p1_facing
;
; if(p1_dx > -3) --p1_dx;
;
	lda     _p1_dx
	sec
	sbc     #$FE
	bvs     L002D
	eor     #$80
L002D:	bpl     L0113
	dec     _p1_dx
	bpl     L0113
;
; else if(pad1 & PAD_RIGHT){
;
	jmp     L0113
L0110:	lda     _pad1
	and     #$01
	beq     L0111
;
; p1_facing = 1;
;
	lda     #$01
	sta     _p1_facing
;
; if(p1_dx < 3) ++p1_dx;
;
	lda     _p1_dx
	sec
	sbc     #$03
	bvc     L0033
	eor     #$80
L0033:	bpl     L0113
	inc     _p1_dx
	bpl     L0113
;
; else{
;
	jmp     L0113
;
; if(p1_dx > 0) --p1_dx;
;
L0111:	lda     _p1_dx
	sec
	sbc     #$01
	bvs     L0038
	eor     #$80
L0038:	bpl     L0112
	dec     _p1_dx
;
; if(p1_dx < 0) ++p1_dx;
;
L0112:	lda     _p1_dx
	asl     a
	bcc     L0113
	inc     _p1_dx
;
; if(p1_dx > 0 && p1_x < 245) p1_x += p1_dx;
;
L0113:	lda     _p1_dx
	sec
	sbc     #$01
	bvs     L003F
	eor     #$80
L003F:	bpl     L0119
	lda     _p1_x
	cmp     #$F5
	bcs     L0119
	lda     _p1_dx
	clc
	adc     _p1_x
	sta     _p1_x
;
; if(p1_dx < 0 && p1_x > 10) p1_x += p1_dx;
;
L0119:	lda     _p1_dx
	asl     a
	bcc     L011F
	lda     _p1_x
	cmp     #$0B
	bcc     L011F
	lda     _p1_dx
	clc
	adc     _p1_x
	sta     _p1_x
;
; if((pad1 & PAD_A) && p1grounded){
;
L011F:	lda     _pad1
	and     #$80
	beq     L0123
	lda     _p1grounded
	beq     L0123
;
; p1_dy = -8;
;
	lda     #$F8
	sta     _p1_dy
;
; p1grounded = 0;
;
	lda     #$00
	sta     _p1grounded
;
; if (p1_dy < 4) p1_dy += 1;
;
L0123:	lda     _p1_dy
	sec
	sbc     #$04
	bvc     L0050
	eor     #$80
L0050:	bpl     L0124
	inc     _p1_dy
;
; p1_y += p1_dy;
;
L0124:	lda     _p1_dy
	clc
	adc     _p1_y
	sta     _p1_y
;
; p1grounded = 0;
;
	lda     #$00
	sta     _p1grounded
;
; if(p1_dy >= 0){
;
	ldx     _p1_dy
	jmi     L012B
;
; if(p1_y >= FLOOR_Y){
;
	lda     _p1_y
	cmp     #$C0
	lda     #$00
	bcc     L0128
;
; p1_y = FLOOR_Y;
;
	lda     #$C0
	sta     _p1_y
;
; p1_dy = 0;
;
	lda     #$00
	sta     _p1_dy
;
; p1grounded = 1;
;
	lda     #$01
	sta     _p1grounded
;
; for(i = 0; i < 3; i++){
;
	lda     #$00
L0128:	sta     _i
L0129:	lda     _i
	cmp     #$03
	jcs     L012B
;
; if (p1_y >= (platforms[i].y-22) && p1_y < (platforms[i].y-22) + 8){
;
	lda     _p1_y
	jsr     pusha0
	lda     _i
	jsr     mulax3
	clc
	ldy     #$06
	adc     (c_sp),y
	sta     ptr1
	txa
	iny
	adc     (c_sp),y
	sta     ptr1+1
	ldy     #$01
	ldx     #$00
	lda     (ptr1),y
	sec
	sbc     #$16
	bcs     L005B
	dex
L005B:	jsr     tosicmp
	jmi     L012A
	lda     _p1_y
	jsr     pusha0
	lda     _i
	jsr     mulax3
	clc
	ldy     #$06
	adc     (c_sp),y
	sta     ptr1
	txa
	iny
	adc     (c_sp),y
	sta     ptr1+1
	ldy     #$01
	ldx     #$00
	lda     (ptr1),y
	sec
	sbc     #$16
	bcs     L005D
	dex
L005D:	clc
	adc     #$08
	bcc     L005E
	inx
L005E:	jsr     tosicmp
	jpl     L012A
;
; if (p1_x + 8 > platforms[i].x && p1_x < platforms[i].x + platforms[i].w){
;
	ldx     #$00
	lda     _p1_x
	clc
	adc     #$08
	bcc     L0062
	inx
L0062:	jsr     pushax
	ldx     #$00
	lda     _i
	jsr     mulax3
	clc
	ldy     #$06
	adc     (c_sp),y
	sta     ptr1
	txa
	iny
	adc     (c_sp),y
	sta     ptr1+1
	ldx     #$00
	lda     (ptr1,x)
	jsr     tosicmp0
	bmi     L012A
	beq     L012A
	lda     _p1_x
	jsr     pusha0
	lda     _i
	jsr     mulax3
	clc
	ldy     #$06
	adc     (c_sp),y
	sta     ptr1
	txa
	iny
	adc     (c_sp),y
	sta     ptr1+1
	ldy     #$00
	lda     (ptr1),y
	sta     sreg
	ldx     #$00
	lda     _i
	jsr     mulax3
	clc
	ldy     #$06
	adc     (c_sp),y
	sta     ptr1
	txa
	iny
	adc     (c_sp),y
	sta     ptr1+1
	ldy     #$02
	ldx     #$00
	lda     (ptr1),y
	clc
	adc     sreg
	bcc     L00F6
	inx
L00F6:	jsr     tosicmp
	bpl     L012A
;
; p1_y = (platforms[i].y-22);
;
	ldx     #$00
	lda     _i
	jsr     mulax3
	clc
	ldy     #$04
	adc     (c_sp),y
	sta     ptr1
	txa
	iny
	adc     (c_sp),y
	sta     ptr1+1
	ldy     #$01
	lda     (ptr1),y
	sec
	sbc     #$16
	sta     _p1_y
;
; p1_dy = 0;
;
	lda     #$00
	sta     _p1_dy
;
; p1grounded = 1;
;
	sty     _p1grounded
;
; for(i = 0; i < 3; i++){
;
L012A:	inc     _i
	jmp     L0129
;
; if((pad1 & PAD_B) && (b1 == 0)){
;
L012B:	lda     _pad1
	and     #$40
	beq     L0130
	lda     _b1
	bne     L0130
;
; b1_y = p1_y + 2;
;
	lda     _p1_y
	clc
	adc     #$02
	sta     _b1_y
;
; b1 = 1;
;
	lda     #$01
	sta     _b1
;
; if(p1_facing == 0){
;
	lda     _p1_facing
	bne     L012F
;
; b1_x = p1_x - 4;
;
	lda     _p1_x
	sec
	sbc     #$04
	sta     _b1_x
;
; b1_vx = -4;
;
	lda     #$FC
	sta     _b1_vx
;
; p1_dx = 8;
;
	lda     #$08
;
; } else {
;
	jmp     L00F9
;
; b1_x = p1_x + 4;
;
L012F:	lda     _p1_x
	clc
	adc     #$04
	sta     _b1_x
;
; b1_vx = 4;
;
	lda     #$04
	sta     _b1_vx
;
; p1_dx = -8;
;
	lda     #$F8
L00F9:	sta     _p1_dx
;
; if(b1 == 1){
;
L0130:	lda     _b1
	cmp     #$01
	bne     L0131
;
; if(p1_facing == 0)
;
	lda     _p1_facing
	bne     L0071
;
; oam_spr(b1_x, b1_y, 0x02, 0);
;
	jsr     decsp3
	lda     _b1_x
	ldy     #$02
	sta     (c_sp),y
	lda     _b1_y
	dey
	sta     (c_sp),y
	lda     #$02
;
; else
;
	jmp     L016E
;
; oam_spr(b1_x, b1_y, 0x03, 0);
;
L0071:	jsr     decsp3
	lda     _b1_x
	ldy     #$02
	sta     (c_sp),y
	lda     _b1_y
	dey
	sta     (c_sp),y
	lda     #$03
L016E:	dey
	sta     (c_sp),y
	tya
	jsr     _oam_spr
;
; b1_x += b1_vx * b1_multi;
;
	ldx     #$00
	lda     _b1_vx
	bpl     L0073
	dex
L0073:	jsr     pushax
	lda     _b1_multi
	jsr     tosmula0
	clc
	adc     _b1_x
	sta     _b1_x
;
; if(b1_x > 245) b1 = 0;
;
	cmp     #$F6
	bcc     L0131
	lda     #$00
	sta     _b1
;
; if(pad2 & PAD_LEFT){
;
L0131:	lda     _pad2
	and     #$02
	beq     L0132
;
; p2_facing = 0;
;
	lda     #$00
	sta     _p2_facing
;
; if(p2_dx > -3) --p2_dx;
;
	lda     _p2_dx
	sec
	sbc     #$FE
	bvs     L0078
	eor     #$80
L0078:	bpl     L0135
	dec     _p2_dx
	bpl     L0135
;
; else if(pad2 & PAD_RIGHT){
;
	jmp     L0135
L0132:	lda     _pad2
	and     #$01
	beq     L0133
;
; p2_facing = 1;
;
	lda     #$01
	sta     _p2_facing
;
; if(p2_dx < 3) ++p2_dx;
;
	lda     _p2_dx
	sec
	sbc     #$03
	bvc     L007E
	eor     #$80
L007E:	bpl     L0135
	inc     _p2_dx
	bpl     L0135
;
; else{
;
	jmp     L0135
;
; if(p2_dx > 0) --p2_dx;
;
L0133:	lda     _p2_dx
	sec
	sbc     #$01
	bvs     L0083
	eor     #$80
L0083:	bpl     L0134
	dec     _p2_dx
;
; if(p2_dx < 0) ++p2_dx;
;
L0134:	lda     _p2_dx
	asl     a
	bcc     L0135
	inc     _p2_dx
;
; if(p2_dx > 0 && p2_x < 245) p2_x += p2_dx;
;
L0135:	lda     _p2_dx
	sec
	sbc     #$01
	bvs     L008A
	eor     #$80
L008A:	bpl     L013B
	lda     _p2_x
	cmp     #$F5
	bcs     L013B
	lda     _p2_dx
	clc
	adc     _p2_x
	sta     _p2_x
;
; if(p2_dx < 0 && p2_x > 10) p2_x += p2_dx;
;
L013B:	lda     _p2_dx
	asl     a
	bcc     L0141
	lda     _p2_x
	cmp     #$0B
	bcc     L0141
	lda     _p2_dx
	clc
	adc     _p2_x
	sta     _p2_x
;
; if((pad2 & PAD_A) && p2grounded){
;
L0141:	lda     _pad2
	and     #$80
	beq     L0145
	lda     _p2grounded
	beq     L0145
;
; p2_dy = -8;
;
	lda     #$F8
	sta     _p2_dy
;
; p2grounded = 0;
;
	lda     #$00
	sta     _p2grounded
;
; if (p2_dy < 4) p2_dy += 1;
;
L0145:	lda     _p2_dy
	sec
	sbc     #$04
	bvc     L009B
	eor     #$80
L009B:	bpl     L0146
	inc     _p2_dy
;
; p2_y += p2_dy;
;
L0146:	lda     _p2_dy
	clc
	adc     _p2_y
	sta     _p2_y
;
; p2grounded = 0;
;
	lda     #$00
	sta     _p2grounded
;
; if(p2_dy >= 0){
;
	ldx     _p2_dy
	jmi     L014D
;
; if(p2_y >= FLOOR_Y){
;
	lda     _p2_y
	cmp     #$C0
	lda     #$00
	bcc     L014A
;
; p2_y = FLOOR_Y;
;
	lda     #$C0
	sta     _p2_y
;
; p2_dy = 0;
;
	lda     #$00
	sta     _p2_dy
;
; p2grounded = 1;
;
	lda     #$01
	sta     _p2grounded
;
; for(i = 0; i < 3; i++){
;
	lda     #$00
L014A:	sta     _i
L014B:	lda     _i
	cmp     #$03
	jcs     L014D
;
; if (p2_y >= (platforms[i].y-22) && p2_y < (platforms[i].y-22) + 8){
;
	lda     _p2_y
	jsr     pusha0
	lda     _i
	jsr     mulax3
	clc
	ldy     #$06
	adc     (c_sp),y
	sta     ptr1
	txa
	iny
	adc     (c_sp),y
	sta     ptr1+1
	ldy     #$01
	ldx     #$00
	lda     (ptr1),y
	sec
	sbc     #$16
	bcs     L00A6
	dex
L00A6:	jsr     tosicmp
	jmi     L014C
	lda     _p2_y
	jsr     pusha0
	lda     _i
	jsr     mulax3
	clc
	ldy     #$06
	adc     (c_sp),y
	sta     ptr1
	txa
	iny
	adc     (c_sp),y
	sta     ptr1+1
	ldy     #$01
	ldx     #$00
	lda     (ptr1),y
	sec
	sbc     #$16
	bcs     L00A8
	dex
L00A8:	clc
	adc     #$08
	bcc     L00A9
	inx
L00A9:	jsr     tosicmp
	jpl     L014C
;
; if (p2_x + 8 > platforms[i].x && p2_x < platforms[i].x + platforms[i].w){
;
	ldx     #$00
	lda     _p2_x
	clc
	adc     #$08
	bcc     L00AD
	inx
L00AD:	jsr     pushax
	ldx     #$00
	lda     _i
	jsr     mulax3
	clc
	ldy     #$06
	adc     (c_sp),y
	sta     ptr1
	txa
	iny
	adc     (c_sp),y
	sta     ptr1+1
	ldx     #$00
	lda     (ptr1,x)
	jsr     tosicmp0
	bmi     L014C
	beq     L014C
	lda     _p2_x
	jsr     pusha0
	lda     _i
	jsr     mulax3
	clc
	ldy     #$06
	adc     (c_sp),y
	sta     ptr1
	txa
	iny
	adc     (c_sp),y
	sta     ptr1+1
	ldy     #$00
	lda     (ptr1),y
	sta     sreg
	ldx     #$00
	lda     _i
	jsr     mulax3
	clc
	ldy     #$06
	adc     (c_sp),y
	sta     ptr1
	txa
	iny
	adc     (c_sp),y
	sta     ptr1+1
	ldy     #$02
	ldx     #$00
	lda     (ptr1),y
	clc
	adc     sreg
	bcc     L00F7
	inx
L00F7:	jsr     tosicmp
	bpl     L014C
;
; p2_y = (platforms[i].y-22);
;
	ldx     #$00
	lda     _i
	jsr     mulax3
	clc
	ldy     #$04
	adc     (c_sp),y
	sta     ptr1
	txa
	iny
	adc     (c_sp),y
	sta     ptr1+1
	ldy     #$01
	lda     (ptr1),y
	sec
	sbc     #$16
	sta     _p2_y
;
; p2_dy = 0;
;
	lda     #$00
	sta     _p2_dy
;
; p2grounded = 1;
;
	sty     _p2grounded
;
; for(i = 0; i < 3; i++){
;
L014C:	inc     _i
	jmp     L014B
;
; if((pad2 & PAD_B) && (b2 == 0)){
;
L014D:	lda     _pad2
	and     #$40
	beq     L0152
	lda     _b2
	bne     L0152
;
; b2_y = p2_y + 2;
;
	lda     _p2_y
	clc
	adc     #$02
	sta     _b2_y
;
; b2 = 1;
;
	lda     #$01
	sta     _b2
;
; if(p2_facing == 0){
;
	lda     _p2_facing
	bne     L0151
;
; b2_x = p2_x - 4;
;
	lda     _p2_x
	sec
	sbc     #$04
	sta     _b2_x
;
; b2_vx = -4;
;
	lda     #$FC
	sta     _b2_vx
;
; p2_dx = 8;
;
	lda     #$08
;
; } else {
;
	jmp     L00FC
;
; b2_x = p2_x + 4;
;
L0151:	lda     _p2_x
	clc
	adc     #$04
	sta     _b2_x
;
; b2_vx = 4;
;
	lda     #$04
	sta     _b2_vx
;
; p2_dx = -8;
;
	lda     #$F8
L00FC:	sta     _p2_dx
;
; if(b2 == 1){
;
L0152:	lda     _b2
	cmp     #$01
	bne     L0153
;
; if(p2_facing == 0)
;
	lda     _p2_facing
	bne     L00BC
;
; oam_spr(b2_x, b2_y, 0x02, 0);
;
	jsr     decsp3
	lda     _b2_x
	ldy     #$02
	sta     (c_sp),y
	lda     _b2_y
	dey
	sta     (c_sp),y
	lda     #$02
;
; else
;
	jmp     L016F
;
; oam_spr(b2_x, b2_y, 0x03, 0);
;
L00BC:	jsr     decsp3
	lda     _b2_x
	ldy     #$02
	sta     (c_sp),y
	lda     _b2_y
	dey
	sta     (c_sp),y
	lda     #$03
L016F:	dey
	sta     (c_sp),y
	tya
	jsr     _oam_spr
;
; b2_x += b2_vx * b2_multi;
;
	ldx     #$00
	lda     _b2_vx
	bpl     L00BE
	dex
L00BE:	jsr     pushax
	lda     _b2_multi
	jsr     tosmula0
	clc
	adc     _b2_x
	sta     _b2_x
;
; if(b2_x > 245) b2 = 0;
;
	cmp     #$F6
	bcc     L0153
	lda     #$00
	sta     _b2
;
; if(b1 == 1){
;
L0153:	lda     _b1
	cmp     #$01
	bne     L0155
;
; if( (b1_x >= p2_x) && (b1_x <= p2_x + 15) && (b1_y >= p2_y) && (b1_y <= p2_y + 15) ){
;
	lda     _b1_x
	cmp     _p2_x
	bcc     L0155
	jsr     pusha0
	lda     _p2_x
	clc
	adc     #$0F
	bcc     L00C3
	ldx     #$01
L00C3:	jsr     tosicmp
	beq     L00FE
	bpl     L0155
L00FE:	lda     _b1_y
	cmp     _p2_y
	bcc     L0155
	jsr     pusha0
	lda     _p2_y
	clc
	adc     #$0F
	bcc     L00C4
	ldx     #$01
L00C4:	jsr     tosicmp
	bmi     L00C5
	bne     L0155
;
; p1_x = 40;
;
L00C5:	lda     #$28
	sta     _p1_x
;
; p2_x = 200;
;
	lda     #$C8
	sta     _p2_x
;
; p1_y = 200;
;
	sta     _p1_y
;
; p2_y = 200;
;
	sta     _p2_y
;
; b1 = 0;
;
	lda     #$00
	sta     _b1
;
; b2 = 0;
;
	sta     _b2
;
; p1score++;
;
	inc     _p1score
;
; p1changed = 1;
;
	lda     #$01
	sta     _p1changed
;
; b1_multi = 1;
;
	sta     _b1_multi
;
; b2_multi = 1;
;
	sta     _b2_multi
;
; powerup_active = 0;
;
	lda     #$00
	sta     _powerup_active
;
; random = (rand() % (150 - 50 + 1)) + 50;
;
	jsr     _rand
	jsr     pushax
	ldx     #$00
	lda     #$65
	jsr     tosmoda0
	clc
	adc     #$32
	sta     _random
;
; if(b2 == 1){
;
L0155:	lda     _b2
	cmp     #$01
	bne     L0157
;
; if( (b2_x >= p1_x) && (b2_x <= p1_x + 15) && (b2_y >= p1_y) && (b2_y <= p1_y + 15) ){
;
	lda     _b2_x
	cmp     _p1_x
	bcc     L0157
	jsr     pusha0
	lda     _p1_x
	clc
	adc     #$0F
	bcc     L00CB
	ldx     #$01
L00CB:	jsr     tosicmp
	beq     L00FF
	bpl     L0157
L00FF:	lda     _b2_y
	cmp     _p1_y
	bcc     L0157
	jsr     pusha0
	lda     _p1_y
	clc
	adc     #$0F
	bcc     L00CC
	ldx     #$01
L00CC:	jsr     tosicmp
	bmi     L00CD
	bne     L0157
;
; p1_x = 40;
;
L00CD:	lda     #$28
	sta     _p1_x
;
; p2_x = 200;
;
	lda     #$C8
	sta     _p2_x
;
; p1_y = 200;
;
	sta     _p1_y
;
; p2_y = 200;
;
	sta     _p2_y
;
; b1 = 0;
;
	lda     #$00
	sta     _b1
;
; b2 = 0;
;
	sta     _b2
;
; p2score++;
;
	inc     _p2score
;
; p2changed = 1;
;
	lda     #$01
	sta     _p2changed
;
; b1_multi = 1;
;
	sta     _b1_multi
;
; b2_multi = 1;
;
	sta     _b2_multi
;
; powerup_active = 0;
;
	lda     #$00
	sta     _powerup_active
;
; random = (rand() % (150 - 50 + 1)) + 50;
;
	jsr     _rand
	jsr     pushax
	ldx     #$00
	lda     #$65
	jsr     tosmoda0
	clc
	adc     #$32
	sta     _random
;
; if(p1_x >= random - 10 && p1_x <= random + 10 && p1_y >= 118 && p1_y <= 130){
;
L0157:	lda     _p1_x
	jsr     pusha0
	lda     _random
	sec
	sbc     #$0A
	bcs     L00D1
	ldx     #$FF
L00D1:	jsr     tosicmp
	bmi     L015B
	lda     _p1_x
	jsr     pusha0
	lda     _random
	clc
	adc     #$0A
	bcc     L00D3
	ldx     #$01
L00D3:	jsr     tosicmp
	beq     L0100
	bpl     L015B
L0100:	lda     _p1_y
	cmp     #$76
	bcc     L015B
	lda     _p1_y
	cmp     #$83
	bcc     L015A
	jmp     L015B
;
; b1_multi = 2;
;
L015A:	lda     #$02
	sta     _b1_multi
;
; powerup_active = 1;
;
	lda     #$01
	sta     _powerup_active
;
; if(p2_x >= random - 10 && p2_x <= random + 10 && p2_y >= 118 && p2_y <= 130){
;
L015B:	lda     _p2_x
	jsr     pusha0
	lda     _random
	sec
	sbc     #$0A
	bcs     L00D7
	ldx     #$FF
L00D7:	jsr     tosicmp
	bmi     L00D6
	lda     _p2_x
	jsr     pusha0
	lda     _random
	clc
	adc     #$0A
	bcc     L00D9
	ldx     #$01
L00D9:	jsr     tosicmp
	beq     L0101
	bpl     L00D6
L0101:	lda     _p2_y
	cmp     #$76
	bcc     L00D6
	cmp     #$83
	bcs     L00D6
;
; b2_multi = 2;
;
	lda     #$02
	sta     _b2_multi
;
; powerup_active = 1;
;
	lda     #$01
	sta     _powerup_active
;
; oam_spr(p1_x, p1_y, 0x41, 0);
;
L00D6:	jsr     decsp3
	lda     _p1_x
	ldy     #$02
	sta     (c_sp),y
	lda     _p1_y
	dey
	sta     (c_sp),y
	lda     #$41
	dey
	sta     (c_sp),y
	tya
	jsr     _oam_spr
;
; oam_spr(p1_x + 8, p1_y, 0x42, 0);
;
	jsr     decsp3
	lda     _p1_x
	clc
	adc     #$08
	ldy     #$02
	sta     (c_sp),y
	lda     _p1_y
	dey
	sta     (c_sp),y
	lda     #$42
	dey
	sta     (c_sp),y
	tya
	jsr     _oam_spr
;
; oam_spr(p1_x, p1_y + 8, 0x43, 0);
;
	jsr     decsp3
	lda     _p1_x
	ldy     #$02
	sta     (c_sp),y
	lda     _p1_y
	clc
	adc     #$08
	dey
	sta     (c_sp),y
	lda     #$43
	dey
	sta     (c_sp),y
	tya
	jsr     _oam_spr
;
; oam_spr(p1_x + 8, p1_y + 8, 0x44, 0);
;
	jsr     decsp3
	lda     _p1_x
	clc
	adc     #$08
	ldy     #$02
	sta     (c_sp),y
	lda     _p1_y
	clc
	adc     #$08
	dey
	sta     (c_sp),y
	lda     #$44
	dey
	sta     (c_sp),y
	tya
	jsr     _oam_spr
;
; oam_spr(p2_x, p2_y, 0x41, 0);
;
	jsr     decsp3
	lda     _p2_x
	ldy     #$02
	sta     (c_sp),y
	lda     _p2_y
	dey
	sta     (c_sp),y
	lda     #$41
	dey
	sta     (c_sp),y
	tya
	jsr     _oam_spr
;
; oam_spr(p2_x + 8, p2_y, 0x42, 0);
;
	jsr     decsp3
	lda     _p2_x
	clc
	adc     #$08
	ldy     #$02
	sta     (c_sp),y
	lda     _p2_y
	dey
	sta     (c_sp),y
	lda     #$42
	dey
	sta     (c_sp),y
	tya
	jsr     _oam_spr
;
; oam_spr(p2_x, p2_y + 8, 0x43, 0);
;
	jsr     decsp3
	lda     _p2_x
	ldy     #$02
	sta     (c_sp),y
	lda     _p2_y
	clc
	adc     #$08
	dey
	sta     (c_sp),y
	lda     #$43
	dey
	sta     (c_sp),y
	tya
	jsr     _oam_spr
;
; oam_spr(p2_x + 8, p2_y + 8, 0x44, 0);
;
	jsr     decsp3
	lda     _p2_x
	clc
	adc     #$08
	ldy     #$02
	sta     (c_sp),y
	lda     _p2_y
	clc
	adc     #$08
	dey
	sta     (c_sp),y
	lda     #$44
	dey
	sta     (c_sp),y
	tya
	jsr     _oam_spr
;
; if(powerup_active == 0){
;
	lda     _powerup_active
	bne     L015F
;
; oam_spr(random, 120, 0x04, 0);
;
	jsr     decsp3
	lda     _random
	ldy     #$02
	sta     (c_sp),y
	lda     #$78
	dey
	sta     (c_sp),y
	lda     #$04
	dey
	sta     (c_sp),y
	tya
	jsr     _oam_spr
;
; if(pad1 & PAD_SELECT){
;
L015F:	lda     _pad1
	and     #$20
	beq     L00E5
;
; ppu_off();
;
	jsr     _ppu_off
;
; vram_adr(NTADR_A(0,0)); 
;
	ldx     #$20
	lda     #$00
	jsr     _vram_adr
;
; for(i = 0; i < 254; i++) {
;
	lda     #$00
	sta     _i
L0160:	lda     _i
	cmp     #$FE
	bcs     L0161
;
; vram_put(0x00); 
;
	lda     #$00
	jsr     _vram_put
;
; for(i = 0; i < 254; i++) {
;
	inc     _i
	jmp     L0160
;
; for(i = 0; i < 250; i++) {
;
L0161:	lda     #$00
	sta     _i
L0162:	lda     _i
	cmp     #$FA
	bcs     L0163
;
; vram_put(0x00); 
;
	lda     #$00
	jsr     _vram_put
;
; for(i = 0; i < 250; i++) {
;
	inc     _i
	jmp     L0162
;
; for(i = 0; i < 250; i++) {
;
L0163:	lda     #$00
	sta     _i
L0164:	lda     _i
	cmp     #$FA
	bcs     L0165
;
; vram_put(0x00); 
;
	lda     #$00
	jsr     _vram_put
;
; for(i = 0; i < 250; i++) {
;
	inc     _i
	jmp     L0164
;
; for(i = 0; i < 130; i++) {
;
L0165:	lda     #$00
	sta     _i
L0166:	lda     _i
	cmp     #$82
	bcs     L00F3
;
; vram_put(0x00); 
;
	lda     #$00
	jsr     _vram_put
;
; for(i = 0; i < 130; i++) {
;
	inc     _i
	jmp     L0166
;
; drawl_title_screen();
;
L00F3:	jsr     _drawl_title_screen
;
; ppu_on_all();
;
	jsr     _ppu_on_all
;
; game_state = 0;
;
	lda     #$00
	sta     _game_state
;
; }
;
L00E5:	jsr     incsp6
;
; while (1){
;
	jmp     L0102

.endproc

