;
; File generated by cc65 v 2.19 - Git 4680d68
;
	.fopt		compiler,"cc65 v 2.19 - Git 4680d68"
	.setcpu		"6502"
	.smart		on
	.autoimport	on
	.case		on
	.debuginfo	off
	.importzp	c_sp, sreg, regsave, regbank
	.importzp	tmp1, tmp2, tmp3, tmp4, ptr1, ptr2, ptr3, ptr4
	.macpack	longbranch
	.forceimport	__STARTUP__
	.import		_pal_bg
	.import		_pal_spr
	.import		_ppu_wait_nmi
	.import		_ppu_off
	.import		_ppu_on_all
	.import		_oam_clear
	.import		_oam_spr
	.import		_pad_poll
	.import		_scroll
	.import		_vram_adr
	.import		_vram_put
	.import		_rand
	.export		_i
	.export		_j
	.export		_pad1
	.export		_p1_facing
	.export		_p1grounded
	.export		_p1score
	.export		_p1changed
	.export		_p1_x
	.export		_p1_y
	.export		_b1_x
	.export		_b1_y
	.export		_b1_multi
	.export		_b1
	.export		_p1_dy
	.export		_p1_dy_multi
	.export		_p1_dx
	.export		_p1_dx_multi
	.export		_b1_vx
	.export		_pad2
	.export		_p2_facing
	.export		_p2grounded
	.export		_p2score
	.export		_p2changed
	.export		_p2_x
	.export		_p2_y
	.export		_b2_x
	.export		_b2_y
	.export		_b2_multi
	.export		_b2
	.export		_p2_dy
	.export		_p2_dy_multi
	.export		_p2_dx
	.export		_p2_dx_multi
	.export		_b2_vx
	.export		_map_id
	.export		_game_state
	.export		_powerup_active
	.export		_powerup_type
	.export		_random
	.export		_maps
	.export		_palette
	.export		_drawl_title_screen
	.export		_reset_game
	.export		_main

.segment	"RODATA"

_maps:
	.byte	$28
	.byte	$B4
	.byte	$30
	.byte	$8C
	.byte	$B4
	.byte	$30
	.byte	$64
	.byte	$9B
	.byte	$20
	.byte	$0A
	.byte	$96
	.byte	$40
	.byte	$B4
	.byte	$96
	.byte	$40
	.byte	$64
	.byte	$B4
	.byte	$30
	.byte	$28
	.byte	$B4
	.byte	$30
	.byte	$64
	.byte	$96
	.byte	$30
	.byte	$A0
	.byte	$78
	.byte	$30
_palette:
	.byte	$0F
	.byte	$16
	.byte	$28
	.byte	$30
	.byte	$00
	.byte	$00
	.byte	$00
	.byte	$00
	.byte	$00
	.byte	$00
	.byte	$00
	.byte	$00
	.byte	$00
	.byte	$00
	.byte	$00
	.byte	$00

.segment	"BSS"

.segment	"ZEROPAGE"
.segment	"ZEROPAGE"
_i:
	.res	1,$00
_j:
	.res	1,$00
_pad1:
	.res	1,$00
_p1_facing:
	.res	1,$00
_p1grounded:
	.res	1,$00
_p1score:
	.res	1,$00
_p1changed:
	.res	1,$00
_p1_x:
	.res	1,$00
_p1_y:
	.res	1,$00
_b1_x:
	.res	1,$00
_b1_y:
	.res	1,$00
_b1_multi:
	.res	1,$00
_b1:
	.res	1,$00
_p1_dy:
	.res	1,$00
_p1_dy_multi:
	.res	1,$00
_p1_dx:
	.res	1,$00
_p1_dx_multi:
	.res	1,$00
_b1_vx:
	.res	1,$00
_pad2:
	.res	1,$00
_p2_facing:
	.res	1,$00
_p2grounded:
	.res	1,$00
_p2score:
	.res	1,$00
_p2changed:
	.res	1,$00
_p2_x:
	.res	1,$00
_p2_y:
	.res	1,$00
_b2_x:
	.res	1,$00
_b2_y:
	.res	1,$00
_b2_multi:
	.res	1,$00
_b2:
	.res	1,$00
_p2_dy:
	.res	1,$00
_p2_dy_multi:
	.res	1,$00
_p2_dx:
	.res	1,$00
_p2_dx_multi:
	.res	1,$00
_b2_vx:
	.res	1,$00
_map_id:
	.res	1,$00
_game_state:
	.res	1,$00
_powerup_active:
	.res	1,$00
_powerup_type:
	.res	1,$00
_random:
	.res	1,$00

; ---------------------------------------------------------------
; void __near__ drawl_title_screen (void)
; ---------------------------------------------------------------

.segment	"CODE"

.proc	_drawl_title_screen: near

.segment	"CODE"

;
; vram_adr(NTADR_A(10, 14)); 
;
	ldx     #$21
	lda     #$CA
	jsr     _vram_adr
;
; vram_put(0x31); 
;
	lda     #$31
	jsr     _vram_put
;
; vram_adr(NTADR_A(16, 14)); 
;
	ldx     #$21
	lda     #$D0
	jsr     _vram_adr
;
; vram_put(0x32); 
;
	lda     #$32
	jsr     _vram_put
;
; vram_adr(NTADR_A(22, 14));
;
	ldx     #$21
	lda     #$D6
	jsr     _vram_adr
;
; vram_put(0x33);
;
	lda     #$33
	jmp     _vram_put

.endproc

; ---------------------------------------------------------------
; void __near__ reset_game (void)
; ---------------------------------------------------------------

.segment	"CODE"

.proc	_reset_game: near

.segment	"CODE"

;
; p1_x = 40;
;
	lda     #$28
	sta     _p1_x
;
; p2_x = 200;
;
	lda     #$C8
	sta     _p2_x
;
; p1_y = 200;
;
	sta     _p1_y
;
; p2_y = 200;
;
	sta     _p2_y
;
; b1 = 0;
;
	lda     #$00
	sta     _b1
;
; b2 = 0;
;
	sta     _b2
;
; b1_multi = 1;
;
	lda     #$01
	sta     _b1_multi
;
; b2_multi = 1;
;
	sta     _b2_multi
;
; p1_dx_multi = 1;
;
	sta     _p1_dx_multi
;
; p1_dy_multi = 1;
;
	sta     _p1_dy_multi
;
; p2_dx_multi = 1;
;
	sta     _p2_dx_multi
;
; p2_dy_multi = 1;
;
	sta     _p2_dy_multi
;
; powerup_active = 0;
;
	lda     #$00
	sta     _powerup_active
;
; random = (rand() % (150 - 50 + 1)) + 50;
;
	jsr     _rand
	jsr     pushax
	ldx     #$00
	lda     #$65
	jsr     tosmoda0
	clc
	adc     #$32
	sta     _random
;
; powerup_type = rand() % 3;
;
	jsr     _rand
	jsr     pushax
	ldx     #$00
	lda     #$03
	jsr     tosmoda0
	sta     _powerup_type
;
; }
;
	rts

.endproc

; ---------------------------------------------------------------
; void __near__ main (void)
; ---------------------------------------------------------------

.segment	"CODE"

.proc	_main: near

.segment	"CODE"

;
; p1_x = 40;
;
	lda     #$28
	sta     _p1_x
;
; p2_x = 200;
;
	lda     #$C8
	sta     _p2_x
;
; p1_y = 200;
;
	sta     _p1_y
;
; p2_y = 200;
;
	sta     _p2_y
;
; p1_dy = 0;
;
	lda     #$00
	sta     _p1_dy
;
; p1_dy_multi = 1;
;
	lda     #$01
	sta     _p1_dy_multi
;
; p1_dx = 0;
;
	lda     #$00
	sta     _p1_dx
;
; p1_dx_multi = 1;
;
	lda     #$01
	sta     _p1_dx_multi
;
; p2_dy = 0;
;
	lda     #$00
	sta     _p2_dy
;
; p2_dy_multi = 1;
;
	lda     #$01
	sta     _p2_dy_multi
;
; p2_dx = 0;
;
	lda     #$00
	sta     _p2_dx
;
; p2_dx_multi = 1;
;
	lda     #$01
	sta     _p2_dx_multi
;
; p1score = 0;
;
	lda     #$00
	sta     _p1score
;
; p2score = 0;
;
	sta     _p2score
;
; p1changed = 1;
;
	lda     #$01
	sta     _p1changed
;
; p2changed = 1;
;
	sta     _p2changed
;
; b1_multi = 1;
;
	sta     _b1_multi
;
; b2_multi = 1;
;
	sta     _b2_multi
;
; game_state = 0;
;
	lda     #$00
	sta     _game_state
;
; map_id = 0;
;
	sta     _map_id
;
; powerup_type = rand() % 3;
;
	jsr     _rand
	jsr     pushax
	ldx     #$00
	lda     #$03
	jsr     tosmoda0
	sta     _powerup_type
;
; powerup_active = 0;
;
	lda     #$00
	sta     _powerup_active
;
; random = (rand() % (150 - 50 + 1)) + 50;
;
	jsr     _rand
	jsr     pushax
	ldx     #$00
	lda     #$65
	jsr     tosmoda0
	clc
	adc     #$32
	sta     _random
;
; ppu_off(); 
;
	jsr     _ppu_off
;
; pal_bg(palette); 
;
	lda     #<(_palette)
	ldx     #>(_palette)
	jsr     _pal_bg
;
; pal_spr(palette); 
;
	lda     #<(_palette)
	ldx     #>(_palette)
	jsr     _pal_spr
;
; vram_adr(NTADR_A(0,26)); 
;
	ldx     #$23
	lda     #$40
	jsr     _vram_adr
;
; drawl_title_screen();
;
	jsr     _drawl_title_screen
;
; ppu_on_all(); 
;
L016D:	jsr     _ppu_on_all
;
; if (game_state == 0) {
;
L010E:	lda     _game_state
	jne     L011B
;
; ppu_wait_nmi();
;
	jsr     _ppu_wait_nmi
;
; pad1 = pad_poll(0);
;
	lda     #$00
	jsr     _pad_poll
	sta     _pad1
;
; if (pad1 & PAD_LEFT)  map_id = 0;
;
	and     #$02
	beq     L010F
	lda     #$00
	sta     _map_id
;
; if (pad1 & PAD_UP)    map_id = 1; 
;
L010F:	lda     _pad1
	and     #$08
	beq     L0110
	lda     #$01
	sta     _map_id
;
; if (pad1 & PAD_RIGHT) map_id = 2;
;
L0110:	lda     _pad1
	and     #$01
	beq     L0009
	lda     #$02
	sta     _map_id
;
; oam_clear();
;
L0009:	jsr     _oam_clear
;
; oam_spr(80 + (map_id * 48), 100, 0x41, 0); 
;
	jsr     decsp3
	lda     _map_id
	jsr     pusha0
	lda     #$30
	jsr     tosumula0
	clc
	adc     #$50
	ldy     #$02
	sta     (c_sp),y
	lda     #$64
	dey
	sta     (c_sp),y
	lda     #$41
	dey
	sta     (c_sp),y
	tya
	jsr     _oam_spr
;
; if (pad1 & PAD_START || pad1 & PAD_A) {
;
	lda     _pad1
	and     #$10
	bne     L0111
	lda     _pad1
	and     #$80
	beq     L010E
;
; ppu_off();
;
L0111:	jsr     _ppu_off
;
; vram_adr(NTADR_A(0,0)); 
;
	ldx     #$20
	lda     #$00
	jsr     _vram_adr
;
; for(i = 0; i < 254; i++) {
;
	lda     #$00
	sta     _i
L0112:	lda     _i
	cmp     #$FE
	bcs     L0113
;
; vram_put(0x00); 
;
	lda     #$00
	jsr     _vram_put
;
; for(i = 0; i < 254; i++) {
;
	inc     _i
	jmp     L0112
;
; for(i = 0; i < 240; i++) {
;
L0113:	lda     #$00
	sta     _i
L0114:	lda     _i
	cmp     #$F0
	bcs     L0013
;
; vram_put(0x00); 
;
	lda     #$00
	jsr     _vram_put
;
; for(i = 0; i < 240; i++) {
;
	inc     _i
	jmp     L0114
;
; vram_adr(NTADR_A(0,26));
;
L0013:	ldx     #$23
	lda     #$40
	jsr     _vram_adr
;
; for (i=0; i<32; ++i) vram_put(0x01);
;
	lda     #$00
	sta     _i
L0115:	lda     _i
	cmp     #$20
	bcs     L0116
	lda     #$01
	jsr     _vram_put
	inc     _i
	jmp     L0115
;
; for (i = 0; i < 3; i++){
;
L0116:	lda     #$00
	sta     _i
L0117:	lda     _i
	cmp     #$03
	jcs     L011A
;
; vram_adr(NTADR_A((maps[map_id][i].x) / 8 , maps[map_id][i].y / 8));
;
	ldx     #$00
	lda     _map_id
	jsr     mulax9
	clc
	adc     #<(_maps)
	sta     sreg
	txa
	adc     #>(_maps)
	sta     sreg+1
	ldx     #$00
	lda     _i
	jsr     mulax3
	clc
	adc     sreg
	sta     ptr1
	txa
	adc     sreg+1
	sta     ptr1+1
	ldy     #$01
	ldx     #$00
	lda     (ptr1),y
	lsr     a
	lsr     a
	lsr     a
	jsr     aslax4
	stx     tmp1
	asl     a
	rol     tmp1
	ldx     tmp1
	sta     ptr2
	stx     ptr2+1
	ldx     #$00
	lda     _map_id
	jsr     mulax9
	clc
	adc     #<(_maps)
	sta     sreg
	txa
	adc     #>(_maps)
	sta     sreg+1
	ldx     #$00
	lda     _i
	jsr     mulax3
	clc
	adc     sreg
	sta     ptr1
	txa
	adc     sreg+1
	sta     ptr1+1
	dey
	lda     (ptr1),y
	lsr     a
	lsr     a
	lsr     a
	ora     ptr2
	pha
	lda     ptr2+1
	ora     #$20
	tax
	pla
	jsr     _vram_adr
;
; for(j = 0; j < (maps[map_id][i].w / 8); j++){
;
	lda     #$00
	sta     _j
	tax
L0118:	lda     _map_id
	jsr     mulax9
	clc
	adc     #<(_maps)
	sta     sreg
	txa
	adc     #>(_maps)
	sta     sreg+1
	ldx     #$00
	lda     _i
	jsr     mulax3
	clc
	adc     sreg
	sta     ptr1
	txa
	adc     sreg+1
	sta     ptr1+1
	ldy     #$02
	lda     (ptr1),y
	lsr     a
	lsr     a
	lsr     a
	cmp     _j
	bcc     L0119
	beq     L0119
;
; vram_put(0x01);
;
	lda     #$01
	jsr     _vram_put
;
; for(j = 0; j < (maps[map_id][i].w / 8); j++){
;
	ldx     #$00
	inc     _j
	jmp     L0118
;
; for (i = 0; i < 3; i++){
;
L0119:	inc     _i
	jmp     L0117
;
; p1_x = 40; p1_y = 180;
;
L011A:	lda     #$28
	sta     _p1_x
	lda     #$B4
	sta     _p1_y
;
; p2_x = 200; p2_y = 180;
;
	lda     #$C8
	sta     _p2_x
	lda     #$B4
	sta     _p2_y
;
; game_state = 1;
;
	lda     #$01
	sta     _game_state
;
; else if (game_state == 1) {
;
	jmp     L016D
L011B:	lda     _game_state
	cmp     #$01
	jne     L010E
;
; const struct Platform* platforms = maps[map_id];
;
	ldx     #$00
	lda     _map_id
	jsr     mulax9
	clc
	adc     #<(_maps)
	tay
	txa
	adc     #>(_maps)
	tax
	tya
	jsr     pushax
;
; unsigned char p1_tens = p1score / 10;
;
	lda     _p1score
	jsr     pusha0
	lda     #$0A
	jsr     tosudiva0
	jsr     pusha
;
; unsigned char p1_ones = p1score % 10;
;
	lda     _p1score
	jsr     pusha0
	lda     #$0A
	jsr     tosumoda0
	jsr     pusha
;
; unsigned char p2_tens = p2score / 10;
;
	lda     _p2score
	jsr     pusha0
	lda     #$0A
	jsr     tosudiva0
	jsr     pusha
;
; unsigned char p2_ones = p2score % 10;
;
	lda     _p2score
	jsr     pusha0
	lda     #$0A
	jsr     tosumoda0
	jsr     pusha
;
; ppu_wait_nmi(); 
;
	jsr     _ppu_wait_nmi
;
; oam_clear(); 
;
	jsr     _oam_clear
;
; if (p1changed) {
;
	lda     _p1changed
	beq     L0024
;
; vram_adr(NTADR_A(2, 1));      
;
	ldx     #$20
	lda     #$22
	jsr     _vram_adr
;
; vram_put(0x30 + p1_tens);     
;
	ldy     #$03
	lda     (c_sp),y
	clc
	adc     #$30
	jsr     _vram_put
;
; vram_put(0x30 + p1_ones);     
;
	ldy     #$02
	lda     (c_sp),y
	clc
	adc     #$30
	jsr     _vram_put
;
; p1changed = 0;
;
	lda     #$00
	sta     _p1changed
;
; if (p2changed) {
;
L0024:	lda     _p2changed
	beq     L0027
;
; vram_adr(NTADR_A(26, 1));
;
	ldx     #$20
	lda     #$3A
	jsr     _vram_adr
;
; vram_put(0x30 + p2_tens);
;
	ldy     #$01
	lda     (c_sp),y
	clc
	adc     #$30
	jsr     _vram_put
;
; vram_put(0x30 + p2_ones);
;
	ldy     #$00
	lda     (c_sp),y
	clc
	adc     #$30
	jsr     _vram_put
;
; p2changed = 0; 
;
	lda     #$00
	sta     _p2changed
;
; scroll(0, 0);
;
L0027:	jsr     push0
	jsr     _scroll
;
; pad1 = pad_poll(0);
;
	lda     #$00
	jsr     _pad_poll
	sta     _pad1
;
; pad2 = pad_poll(1);
;
	lda     #$01
	jsr     _pad_poll
	sta     _pad2
;
; if(pad1 & PAD_LEFT){
;
	lda     _pad1
	and     #$02
	beq     L011C
;
; p1_facing = 0;
;
	lda     #$00
	sta     _p1_facing
;
; if(p1_dx > -3) --p1_dx;
;
	lda     _p1_dx
	sec
	sbc     #$FE
	bvs     L002D
	eor     #$80
L002D:	bpl     L011F
	dec     _p1_dx
	bpl     L011F
;
; else if(pad1 & PAD_RIGHT){
;
	jmp     L011F
L011C:	lda     _pad1
	and     #$01
	beq     L011D
;
; p1_facing = 1;
;
	lda     #$01
	sta     _p1_facing
;
; if(p1_dx < 3) ++p1_dx;
;
	lda     _p1_dx
	sec
	sbc     #$03
	bvc     L0033
	eor     #$80
L0033:	bpl     L011F
	inc     _p1_dx
	bpl     L011F
;
; else{
;
	jmp     L011F
;
; if(p1_dx > 0) --p1_dx;
;
L011D:	lda     _p1_dx
	sec
	sbc     #$01
	bvs     L0038
	eor     #$80
L0038:	bpl     L011E
	dec     _p1_dx
;
; if(p1_dx < 0) ++p1_dx;
;
L011E:	lda     _p1_dx
	asl     a
	bcc     L011F
	inc     _p1_dx
;
; if(p1_dx > 0 && p1_x < 245) p1_x += p1_dx * p1_dx_multi;
;
L011F:	lda     _p1_dx
	sec
	sbc     #$01
	bvs     L003F
	eor     #$80
L003F:	bpl     L0123
	lda     _p1_x
	cmp     #$F5
	bcs     L0123
	ldx     #$00
	lda     _p1_dx
	bpl     L0043
	dex
L0043:	jsr     pushax
	ldx     #$00
	lda     _p1_dx_multi
	bpl     L0044
	dex
L0044:	jsr     tosmulax
	clc
	adc     _p1_x
	sta     _p1_x
;
; if(p1_dx < 0 && p1_x > 10) p1_x += p1_dx * p1_dx_multi;
;
L0123:	lda     _p1_dx
	asl     a
	bcc     L0127
	lda     _p1_x
	cmp     #$0B
	bcc     L0127
	ldx     #$00
	lda     _p1_dx
	bpl     L004A
	dex
L004A:	jsr     pushax
	ldx     #$00
	lda     _p1_dx_multi
	bpl     L004B
	dex
L004B:	jsr     tosmulax
	clc
	adc     _p1_x
	sta     _p1_x
;
; if((pad1 & PAD_A) && p1grounded){
;
L0127:	lda     _pad1
	and     #$80
	beq     L012B
	lda     _p1grounded
	beq     L012B
;
; p1_dy = -8;
;
	lda     #$F8
	sta     _p1_dy
;
; p1grounded = 0;
;
	lda     #$00
	sta     _p1grounded
;
; if (p1_dy < 4) p1_dy += 1;
;
L012B:	lda     _p1_dy
	sec
	sbc     #$04
	bvc     L0052
	eor     #$80
L0052:	asl     a
	ldx     #$00
	bcc     L012C
	inc     _p1_dy
;
; p1_y += p1_dy * p1_dy_multi;
;
L012C:	lda     _p1_dy
	bpl     L0054
	dex
L0054:	jsr     pushax
	ldx     #$00
	lda     _p1_dy_multi
	bpl     L0055
	dex
L0055:	jsr     tosmulax
	clc
	adc     _p1_y
	sta     _p1_y
;
; p1grounded = 0;
;
	lda     #$00
	sta     _p1grounded
;
; if(p1_dy >= 0){
;
	ldx     _p1_dy
	jmi     L0131
;
; if(p1_y >= FLOOR_Y){
;
	lda     _p1_y
	cmp     #$C0
	lda     #$00
	bcc     L012E
;
; p1_y = FLOOR_Y;
;
	lda     #$C0
	sta     _p1_y
;
; p1_dy = 0;
;
	lda     #$00
	sta     _p1_dy
;
; p1grounded = 1;
;
	lda     #$01
	sta     _p1grounded
;
; for(i = 0; i < 3; i++){
;
	lda     #$00
L012E:	sta     _i
L012F:	lda     _i
	cmp     #$03
	jcs     L0131
;
; if (p1_y >= (platforms[i].y-22) && p1_y < (platforms[i].y-22) + 8){
;
	lda     _p1_y
	jsr     pusha0
	lda     _i
	jsr     mulax3
	clc
	ldy     #$06
	adc     (c_sp),y
	sta     ptr1
	txa
	iny
	adc     (c_sp),y
	sta     ptr1+1
	ldy     #$01
	ldx     #$00
	lda     (ptr1),y
	sec
	sbc     #$16
	bcs     L005E
	dex
L005E:	jsr     tosicmp
	jmi     L0130
	lda     _p1_y
	jsr     pusha0
	lda     _i
	jsr     mulax3
	clc
	ldy     #$06
	adc     (c_sp),y
	sta     ptr1
	txa
	iny
	adc     (c_sp),y
	sta     ptr1+1
	ldy     #$01
	ldx     #$00
	lda     (ptr1),y
	sec
	sbc     #$16
	bcs     L0060
	dex
L0060:	clc
	adc     #$08
	bcc     L0061
	inx
L0061:	jsr     tosicmp
	jpl     L0130
;
; if (p1_x + 8 > platforms[i].x && p1_x < platforms[i].x + platforms[i].w){
;
	ldx     #$00
	lda     _p1_x
	clc
	adc     #$08
	bcc     L0065
	inx
L0065:	jsr     pushax
	ldx     #$00
	lda     _i
	jsr     mulax3
	clc
	ldy     #$06
	adc     (c_sp),y
	sta     ptr1
	txa
	iny
	adc     (c_sp),y
	sta     ptr1+1
	ldx     #$00
	lda     (ptr1,x)
	jsr     tosicmp0
	bmi     L0130
	beq     L0130
	lda     _p1_x
	jsr     pusha0
	lda     _i
	jsr     mulax3
	clc
	ldy     #$06
	adc     (c_sp),y
	sta     ptr1
	txa
	iny
	adc     (c_sp),y
	sta     ptr1+1
	ldy     #$00
	lda     (ptr1),y
	sta     sreg
	ldx     #$00
	lda     _i
	jsr     mulax3
	clc
	ldy     #$06
	adc     (c_sp),y
	sta     ptr1
	txa
	iny
	adc     (c_sp),y
	sta     ptr1+1
	ldy     #$02
	ldx     #$00
	lda     (ptr1),y
	clc
	adc     sreg
	bcc     L0102
	inx
L0102:	jsr     tosicmp
	bpl     L0130
;
; p1_y = (platforms[i].y-22);
;
	ldx     #$00
	lda     _i
	jsr     mulax3
	clc
	ldy     #$04
	adc     (c_sp),y
	sta     ptr1
	txa
	iny
	adc     (c_sp),y
	sta     ptr1+1
	ldy     #$01
	lda     (ptr1),y
	sec
	sbc     #$16
	sta     _p1_y
;
; p1_dy = 0;
;
	lda     #$00
	sta     _p1_dy
;
; p1grounded = 1;
;
	sty     _p1grounded
;
; for(i = 0; i < 3; i++){
;
L0130:	inc     _i
	jmp     L012F
;
; if((pad1 & PAD_B) && (b1 == 0)){
;
L0131:	lda     _pad1
	and     #$40
	beq     L0136
	lda     _b1
	bne     L0136
;
; b1_y = p1_y + 2;
;
	lda     _p1_y
	clc
	adc     #$02
	sta     _b1_y
;
; b1 = 1;
;
	lda     #$01
	sta     _b1
;
; if(p1_facing == 0){
;
	lda     _p1_facing
	bne     L0135
;
; b1_x = p1_x - 4;
;
	lda     _p1_x
	sec
	sbc     #$04
	sta     _b1_x
;
; b1_vx = -4;
;
	lda     #$FC
	sta     _b1_vx
;
; p1_dx = 8;
;
	lda     #$08
;
; } else {
;
	jmp     L0105
;
; b1_x = p1_x + 4;
;
L0135:	lda     _p1_x
	clc
	adc     #$04
	sta     _b1_x
;
; b1_vx = 4;
;
	lda     #$04
	sta     _b1_vx
;
; p1_dx = -8;
;
	lda     #$F8
L0105:	sta     _p1_dx
;
; if(b1 == 1){
;
L0136:	lda     _b1
	cmp     #$01
	bne     L0137
;
; if(p1_facing == 0)
;
	lda     _p1_facing
	bne     L0074
;
; oam_spr(b1_x, b1_y, 0x02, 0);
;
	jsr     decsp3
	lda     _b1_x
	ldy     #$02
	sta     (c_sp),y
	lda     _b1_y
	dey
	sta     (c_sp),y
	lda     #$02
;
; else
;
	jmp     L0174
;
; oam_spr(b1_x, b1_y, 0x03, 0);
;
L0074:	jsr     decsp3
	lda     _b1_x
	ldy     #$02
	sta     (c_sp),y
	lda     _b1_y
	dey
	sta     (c_sp),y
	lda     #$03
L0174:	dey
	sta     (c_sp),y
	tya
	jsr     _oam_spr
;
; b1_x += b1_vx * b1_multi;
;
	ldx     #$00
	lda     _b1_vx
	bpl     L0076
	dex
L0076:	jsr     pushax
	lda     _b1_multi
	jsr     tosmula0
	clc
	adc     _b1_x
	sta     _b1_x
;
; if(b1_x > 245) b1 = 0;
;
	cmp     #$F6
	bcc     L0137
	lda     #$00
	sta     _b1
;
; if(pad2 & PAD_LEFT){
;
L0137:	lda     _pad2
	and     #$02
	beq     L0138
;
; p2_facing = 0;
;
	lda     #$00
	sta     _p2_facing
;
; if(p2_dx > -3) --p2_dx;
;
	lda     _p2_dx
	sec
	sbc     #$FE
	bvs     L007B
	eor     #$80
L007B:	bpl     L013B
	dec     _p2_dx
	bpl     L013B
;
; else if(pad2 & PAD_RIGHT){
;
	jmp     L013B
L0138:	lda     _pad2
	and     #$01
	beq     L0139
;
; p2_facing = 1;
;
	lda     #$01
	sta     _p2_facing
;
; if(p2_dx < 3) ++p2_dx;
;
	lda     _p2_dx
	sec
	sbc     #$03
	bvc     L0081
	eor     #$80
L0081:	bpl     L013B
	inc     _p2_dx
	bpl     L013B
;
; else{
;
	jmp     L013B
;
; if(p2_dx > 0) --p2_dx;
;
L0139:	lda     _p2_dx
	sec
	sbc     #$01
	bvs     L0086
	eor     #$80
L0086:	bpl     L013A
	dec     _p2_dx
;
; if(p2_dx < 0) ++p2_dx;
;
L013A:	lda     _p2_dx
	asl     a
	bcc     L013B
	inc     _p2_dx
;
; if(p2_dx > 0 && p2_x < 245) p2_x += p2_dx * p2_dx_multi;
;
L013B:	lda     _p2_dx
	sec
	sbc     #$01
	bvs     L008D
	eor     #$80
L008D:	bpl     L013F
	lda     _p2_x
	cmp     #$F5
	bcs     L013F
	ldx     #$00
	lda     _p2_dx
	bpl     L0091
	dex
L0091:	jsr     pushax
	ldx     #$00
	lda     _p2_dx_multi
	bpl     L0092
	dex
L0092:	jsr     tosmulax
	clc
	adc     _p2_x
	sta     _p2_x
;
; if(p2_dx < 0 && p2_x > 10) p2_x += p2_dx * p2_dx_multi;
;
L013F:	lda     _p2_dx
	asl     a
	bcc     L0143
	lda     _p2_x
	cmp     #$0B
	bcc     L0143
	ldx     #$00
	lda     _p2_dx
	bpl     L0098
	dex
L0098:	jsr     pushax
	ldx     #$00
	lda     _p2_dx_multi
	bpl     L0099
	dex
L0099:	jsr     tosmulax
	clc
	adc     _p2_x
	sta     _p2_x
;
; if((pad2 & PAD_A) && p2grounded){
;
L0143:	lda     _pad2
	and     #$80
	beq     L0147
	lda     _p2grounded
	beq     L0147
;
; p2_dy = -8;
;
	lda     #$F8
	sta     _p2_dy
;
; p2grounded = 0;
;
	lda     #$00
	sta     _p2grounded
;
; if (p2_dy < 4) p2_dy += 1;
;
L0147:	lda     _p2_dy
	sec
	sbc     #$04
	bvc     L00A0
	eor     #$80
L00A0:	asl     a
	ldx     #$00
	bcc     L0148
	inc     _p2_dy
;
; p2_y += p2_dy * p2_dy_multi;
;
L0148:	lda     _p2_dy
	bpl     L00A2
	dex
L00A2:	jsr     pushax
	ldx     #$00
	lda     _p2_dy_multi
	bpl     L00A3
	dex
L00A3:	jsr     tosmulax
	clc
	adc     _p2_y
	sta     _p2_y
;
; p2grounded = 0;
;
	lda     #$00
	sta     _p2grounded
;
; if(p2_dy >= 0){
;
	ldx     _p2_dy
	jmi     L014D
;
; if(p2_y >= FLOOR_Y){
;
	lda     _p2_y
	cmp     #$C0
	lda     #$00
	bcc     L014A
;
; p2_y = FLOOR_Y;
;
	lda     #$C0
	sta     _p2_y
;
; p2_dy = 0;
;
	lda     #$00
	sta     _p2_dy
;
; p2grounded = 1;
;
	lda     #$01
	sta     _p2grounded
;
; for(i = 0; i < 3; i++){
;
	lda     #$00
L014A:	sta     _i
L014B:	lda     _i
	cmp     #$03
	jcs     L014D
;
; if (p2_y >= (platforms[i].y-22) && p2_y < (platforms[i].y-22) + 8){
;
	lda     _p2_y
	jsr     pusha0
	lda     _i
	jsr     mulax3
	clc
	ldy     #$06
	adc     (c_sp),y
	sta     ptr1
	txa
	iny
	adc     (c_sp),y
	sta     ptr1+1
	ldy     #$01
	ldx     #$00
	lda     (ptr1),y
	sec
	sbc     #$16
	bcs     L00AC
	dex
L00AC:	jsr     tosicmp
	jmi     L014C
	lda     _p2_y
	jsr     pusha0
	lda     _i
	jsr     mulax3
	clc
	ldy     #$06
	adc     (c_sp),y
	sta     ptr1
	txa
	iny
	adc     (c_sp),y
	sta     ptr1+1
	ldy     #$01
	ldx     #$00
	lda     (ptr1),y
	sec
	sbc     #$16
	bcs     L00AE
	dex
L00AE:	clc
	adc     #$08
	bcc     L00AF
	inx
L00AF:	jsr     tosicmp
	jpl     L014C
;
; if (p2_x + 8 > platforms[i].x && p2_x < platforms[i].x + platforms[i].w){
;
	ldx     #$00
	lda     _p2_x
	clc
	adc     #$08
	bcc     L00B3
	inx
L00B3:	jsr     pushax
	ldx     #$00
	lda     _i
	jsr     mulax3
	clc
	ldy     #$06
	adc     (c_sp),y
	sta     ptr1
	txa
	iny
	adc     (c_sp),y
	sta     ptr1+1
	ldx     #$00
	lda     (ptr1,x)
	jsr     tosicmp0
	bmi     L014C
	beq     L014C
	lda     _p2_x
	jsr     pusha0
	lda     _i
	jsr     mulax3
	clc
	ldy     #$06
	adc     (c_sp),y
	sta     ptr1
	txa
	iny
	adc     (c_sp),y
	sta     ptr1+1
	ldy     #$00
	lda     (ptr1),y
	sta     sreg
	ldx     #$00
	lda     _i
	jsr     mulax3
	clc
	ldy     #$06
	adc     (c_sp),y
	sta     ptr1
	txa
	iny
	adc     (c_sp),y
	sta     ptr1+1
	ldy     #$02
	ldx     #$00
	lda     (ptr1),y
	clc
	adc     sreg
	bcc     L0103
	inx
L0103:	jsr     tosicmp
	bpl     L014C
;
; p2_y = (platforms[i].y-22);
;
	ldx     #$00
	lda     _i
	jsr     mulax3
	clc
	ldy     #$04
	adc     (c_sp),y
	sta     ptr1
	txa
	iny
	adc     (c_sp),y
	sta     ptr1+1
	ldy     #$01
	lda     (ptr1),y
	sec
	sbc     #$16
	sta     _p2_y
;
; p2_dy = 0;
;
	lda     #$00
	sta     _p2_dy
;
; p2grounded = 1;
;
	sty     _p2grounded
;
; for(i = 0; i < 3; i++){
;
L014C:	inc     _i
	jmp     L014B
;
; if((pad2 & PAD_B) && (b2 == 0)){
;
L014D:	lda     _pad2
	and     #$40
	beq     L0152
	lda     _b2
	bne     L0152
;
; b2_y = p2_y + 2;
;
	lda     _p2_y
	clc
	adc     #$02
	sta     _b2_y
;
; b2 = 1;
;
	lda     #$01
	sta     _b2
;
; if(p2_facing == 0){
;
	lda     _p2_facing
	bne     L0151
;
; b2_x = p2_x - 4;
;
	lda     _p2_x
	sec
	sbc     #$04
	sta     _b2_x
;
; b2_vx = -4;
;
	lda     #$FC
	sta     _b2_vx
;
; p2_dx = 8;
;
	lda     #$08
;
; } else {
;
	jmp     L0108
;
; b2_x = p2_x + 4;
;
L0151:	lda     _p2_x
	clc
	adc     #$04
	sta     _b2_x
;
; b2_vx = 4;
;
	lda     #$04
	sta     _b2_vx
;
; p2_dx = -8;
;
	lda     #$F8
L0108:	sta     _p2_dx
;
; if(b2 == 1){
;
L0152:	lda     _b2
	cmp     #$01
	bne     L0153
;
; if(p2_facing == 0)
;
	lda     _p2_facing
	bne     L00C2
;
; oam_spr(b2_x, b2_y, 0x02, 0);
;
	jsr     decsp3
	lda     _b2_x
	ldy     #$02
	sta     (c_sp),y
	lda     _b2_y
	dey
	sta     (c_sp),y
	lda     #$02
;
; else
;
	jmp     L0175
;
; oam_spr(b2_x, b2_y, 0x03, 0);
;
L00C2:	jsr     decsp3
	lda     _b2_x
	ldy     #$02
	sta     (c_sp),y
	lda     _b2_y
	dey
	sta     (c_sp),y
	lda     #$03
L0175:	dey
	sta     (c_sp),y
	tya
	jsr     _oam_spr
;
; b2_x += b2_vx * b2_multi;
;
	ldx     #$00
	lda     _b2_vx
	bpl     L00C4
	dex
L00C4:	jsr     pushax
	lda     _b2_multi
	jsr     tosmula0
	clc
	adc     _b2_x
	sta     _b2_x
;
; if(b2_x > 245) b2 = 0;
;
	cmp     #$F6
	bcc     L0153
	lda     #$00
	sta     _b2
;
; if(b1 == 1){
;
L0153:	lda     _b1
	cmp     #$01
	bne     L0155
;
; if( (b1_x >= p2_x) && (b1_x <= p2_x + 15) && (b1_y >= p2_y) && (b1_y <= p2_y + 15) ){
;
	lda     _b1_x
	cmp     _p2_x
	bcc     L0155
	jsr     pusha0
	lda     _p2_x
	clc
	adc     #$0F
	bcc     L00C9
	ldx     #$01
L00C9:	jsr     tosicmp
	beq     L010A
	bpl     L0155
L010A:	lda     _b1_y
	cmp     _p2_y
	bcc     L0155
	jsr     pusha0
	lda     _p2_y
	clc
	adc     #$0F
	bcc     L00CA
	ldx     #$01
L00CA:	jsr     tosicmp
	bmi     L00CB
	bne     L0155
;
; p1score++;
;
L00CB:	inc     _p1score
;
; p1changed = 1;
;
	lda     #$01
	sta     _p1changed
;
; reset_game();
;
	jsr     _reset_game
;
; if(b2 == 1){
;
L0155:	lda     _b2
	cmp     #$01
	bne     L0157
;
; if( (b2_x >= p1_x) && (b2_x <= p1_x + 15) && (b2_y >= p1_y) && (b2_y <= p1_y + 15) ){
;
	lda     _b2_x
	cmp     _p1_x
	bcc     L0157
	jsr     pusha0
	lda     _p1_x
	clc
	adc     #$0F
	bcc     L00D0
	ldx     #$01
L00D0:	jsr     tosicmp
	beq     L010B
	bpl     L0157
L010B:	lda     _b2_y
	cmp     _p1_y
	bcc     L0157
	jsr     pusha0
	lda     _p1_y
	clc
	adc     #$0F
	bcc     L00D1
	ldx     #$01
L00D1:	jsr     tosicmp
	bmi     L00D2
	bne     L0157
;
; p2score++;
;
L00D2:	inc     _p2score
;
; p2changed = 1;
;
	lda     #$01
	sta     _p2changed
;
; reset_game();
;
	jsr     _reset_game
;
; if(p1_x >= random - 10 && p1_x <= random + 10 && p1_y >= 118 && p1_y <= 130){
;
L0157:	lda     _p1_x
	jsr     pusha0
	lda     _random
	sec
	sbc     #$0A
	bcs     L00D5
	ldx     #$FF
L00D5:	jsr     tosicmp
	bmi     L015E
	lda     _p1_x
	jsr     pusha0
	lda     _random
	clc
	adc     #$0A
	bcc     L00D7
	ldx     #$01
L00D7:	jsr     tosicmp
	beq     L010C
	bpl     L015E
L010C:	lda     _p1_y
	cmp     #$76
	bcc     L015E
	lda     _p1_y
	cmp     #$83
	bcc     L015A
	jmp     L015E
;
; if(powerup_type == 0)
;
L015A:	lda     _powerup_type
	bne     L015B
;
; b1_multi = 2;
;
	lda     #$02
	sta     _b1_multi
;
; else if(powerup_type == 1)
;
	jmp     L015D
L015B:	lda     _powerup_type
	cmp     #$01
	bne     L015C
;
; p1_dx_multi = 2;
;
	lda     #$02
	sta     _p1_dx_multi
;
; else
;
	jmp     L015D
;
; p1_dy_multi = 2;
;
L015C:	lda     #$02
	sta     _p1_dy_multi
;
; powerup_active = 1;
;
L015D:	lda     #$01
	sta     _powerup_active
;
; if(p2_x >= random - 10 && p2_x <= random + 10 && p2_y >= 118 && p2_y <= 130){
;
L015E:	lda     _p2_x
	jsr     pusha0
	lda     _random
	sec
	sbc     #$0A
	bcs     L00DF
	ldx     #$FF
L00DF:	jsr     tosicmp
	bmi     L00DE
	lda     _p2_x
	jsr     pusha0
	lda     _random
	clc
	adc     #$0A
	bcc     L00E1
	ldx     #$01
L00E1:	jsr     tosicmp
	beq     L010D
	bpl     L00DE
L010D:	lda     _p2_y
	cmp     #$76
	bcc     L00DE
	cmp     #$83
	bcs     L00DE
;
; if(powerup_type == 0)
;
	lda     _powerup_type
	bne     L0162
;
; b2_multi = 2;
;
	lda     #$02
	sta     _b2_multi
;
; else if(powerup_type == 1)
;
	jmp     L0164
L0162:	lda     _powerup_type
	cmp     #$01
	bne     L0163
;
; p2_dx_multi = 2;
;
	lda     #$02
	sta     _p2_dx_multi
;
; else
;
	jmp     L0164
;
; p2_dy_multi = 2;
;
L0163:	lda     #$02
	sta     _p2_dy_multi
;
; powerup_active = 1;
;
L0164:	lda     #$01
	sta     _powerup_active
;
; oam_spr(p1_x, p1_y, 0x41, 0);
;
L00DE:	jsr     decsp3
	lda     _p1_x
	ldy     #$02
	sta     (c_sp),y
	lda     _p1_y
	dey
	sta     (c_sp),y
	lda     #$41
	dey
	sta     (c_sp),y
	tya
	jsr     _oam_spr
;
; oam_spr(p1_x + 8, p1_y, 0x42, 0);
;
	jsr     decsp3
	lda     _p1_x
	clc
	adc     #$08
	ldy     #$02
	sta     (c_sp),y
	lda     _p1_y
	dey
	sta     (c_sp),y
	lda     #$42
	dey
	sta     (c_sp),y
	tya
	jsr     _oam_spr
;
; oam_spr(p1_x, p1_y + 8, 0x43, 0);
;
	jsr     decsp3
	lda     _p1_x
	ldy     #$02
	sta     (c_sp),y
	lda     _p1_y
	clc
	adc     #$08
	dey
	sta     (c_sp),y
	lda     #$43
	dey
	sta     (c_sp),y
	tya
	jsr     _oam_spr
;
; oam_spr(p1_x + 8, p1_y + 8, 0x44, 0);
;
	jsr     decsp3
	lda     _p1_x
	clc
	adc     #$08
	ldy     #$02
	sta     (c_sp),y
	lda     _p1_y
	clc
	adc     #$08
	dey
	sta     (c_sp),y
	lda     #$44
	dey
	sta     (c_sp),y
	tya
	jsr     _oam_spr
;
; oam_spr(p2_x, p2_y, 0x41, 0);
;
	jsr     decsp3
	lda     _p2_x
	ldy     #$02
	sta     (c_sp),y
	lda     _p2_y
	dey
	sta     (c_sp),y
	lda     #$41
	dey
	sta     (c_sp),y
	tya
	jsr     _oam_spr
;
; oam_spr(p2_x + 8, p2_y, 0x42, 0);
;
	jsr     decsp3
	lda     _p2_x
	clc
	adc     #$08
	ldy     #$02
	sta     (c_sp),y
	lda     _p2_y
	dey
	sta     (c_sp),y
	lda     #$42
	dey
	sta     (c_sp),y
	tya
	jsr     _oam_spr
;
; oam_spr(p2_x, p2_y + 8, 0x43, 0);
;
	jsr     decsp3
	lda     _p2_x
	ldy     #$02
	sta     (c_sp),y
	lda     _p2_y
	clc
	adc     #$08
	dey
	sta     (c_sp),y
	lda     #$43
	dey
	sta     (c_sp),y
	tya
	jsr     _oam_spr
;
; oam_spr(p2_x + 8, p2_y + 8, 0x44, 0);
;
	jsr     decsp3
	lda     _p2_x
	clc
	adc     #$08
	ldy     #$02
	sta     (c_sp),y
	lda     _p2_y
	clc
	adc     #$08
	dey
	sta     (c_sp),y
	lda     #$44
	dey
	sta     (c_sp),y
	tya
	jsr     _oam_spr
;
; if(powerup_active == 0){
;
	lda     _powerup_active
	bne     L0165
;
; oam_spr(random, 120, 0x04, 0);
;
	jsr     decsp3
	lda     _random
	ldy     #$02
	sta     (c_sp),y
	lda     #$78
	dey
	sta     (c_sp),y
	lda     #$04
	dey
	sta     (c_sp),y
	tya
	jsr     _oam_spr
;
; if(pad1 & PAD_SELECT){
;
L0165:	lda     _pad1
	and     #$20
	beq     L00F1
;
; ppu_off();
;
	jsr     _ppu_off
;
; vram_adr(NTADR_A(0,0)); 
;
	ldx     #$20
	lda     #$00
	jsr     _vram_adr
;
; for(i = 0; i < 254; i++) {
;
	lda     #$00
	sta     _i
L0166:	lda     _i
	cmp     #$FE
	bcs     L0167
;
; vram_put(0x00); 
;
	lda     #$00
	jsr     _vram_put
;
; for(i = 0; i < 254; i++) {
;
	inc     _i
	jmp     L0166
;
; for(i = 0; i < 250; i++) {
;
L0167:	lda     #$00
	sta     _i
L0168:	lda     _i
	cmp     #$FA
	bcs     L0169
;
; vram_put(0x00); 
;
	lda     #$00
	jsr     _vram_put
;
; for(i = 0; i < 250; i++) {
;
	inc     _i
	jmp     L0168
;
; for(i = 0; i < 250; i++) {
;
L0169:	lda     #$00
	sta     _i
L016A:	lda     _i
	cmp     #$FA
	bcs     L016B
;
; vram_put(0x00); 
;
	lda     #$00
	jsr     _vram_put
;
; for(i = 0; i < 250; i++) {
;
	inc     _i
	jmp     L016A
;
; for(i = 0; i < 130; i++) {
;
L016B:	lda     #$00
	sta     _i
L016C:	lda     _i
	cmp     #$82
	bcs     L00FF
;
; vram_put(0x00); 
;
	lda     #$00
	jsr     _vram_put
;
; for(i = 0; i < 130; i++) {
;
	inc     _i
	jmp     L016C
;
; drawl_title_screen();
;
L00FF:	jsr     _drawl_title_screen
;
; ppu_on_all();
;
	jsr     _ppu_on_all
;
; game_state = 0;
;
	lda     #$00
	sta     _game_state
;
; }
;
L00F1:	jsr     incsp6
;
; while (1){
;
	jmp     L010E

.endproc

