;
; File generated by cc65 v 2.19 - Git 4680d68
;
	.fopt		compiler,"cc65 v 2.19 - Git 4680d68"
	.setcpu		"6502"
	.smart		on
	.autoimport	on
	.case		on
	.debuginfo	off
	.importzp	c_sp, sreg, regsave, regbank
	.importzp	tmp1, tmp2, tmp3, tmp4, ptr1, ptr2, ptr3, ptr4
	.macpack	longbranch
	.forceimport	__STARTUP__
	.import		_pal_bg
	.import		_pal_spr
	.import		_ppu_wait_nmi
	.import		_ppu_off
	.import		_ppu_on_all
	.import		_oam_clear
	.import		_oam_spr
	.import		_pad_poll
	.import		_vram_adr
	.import		_vram_put
	.export		_i
	.export		_j
	.export		_pad1
	.export		_p1_facing
	.export		_p1grounded
	.export		_p1score
	.export		_p1changed
	.export		_p1_x
	.export		_p1_y
	.export		_b1_x
	.export		_b1_y
	.export		_b1
	.export		_p1_dy
	.export		_p1_dx
	.export		_b1_vx
	.export		_pad2
	.export		_p2_facing
	.export		_p2grounded
	.export		_p2score
	.export		_p2changed
	.export		_p2_x
	.export		_p2_y
	.export		_b2_x
	.export		_b2_y
	.export		_b2
	.export		_p2_dy
	.export		_p2_dx
	.export		_b2_vx
	.export		_platforms
	.export		_palette
	.export		_draw_score
	.export		_main

.segment	"RODATA"

_platforms:
	.byte	$28
	.byte	$B4
	.byte	$30
	.byte	$8C
	.byte	$B4
	.byte	$30
	.byte	$64
	.byte	$9B
	.byte	$20
_palette:
	.byte	$0F
	.byte	$16
	.byte	$28
	.byte	$30
	.byte	$00
	.byte	$00
	.byte	$00
	.byte	$00
	.byte	$00
	.byte	$00
	.byte	$00
	.byte	$00
	.byte	$00
	.byte	$00
	.byte	$00
	.byte	$00

.segment	"BSS"

.segment	"ZEROPAGE"
.segment	"ZEROPAGE"
_i:
	.res	1,$00
_j:
	.res	1,$00
_pad1:
	.res	1,$00
_p1_facing:
	.res	1,$00
_p1grounded:
	.res	1,$00
_p1score:
	.res	1,$00
_p1changed:
	.res	1,$00
_p1_x:
	.res	1,$00
_p1_y:
	.res	1,$00
_b1_x:
	.res	1,$00
_b1_y:
	.res	1,$00
_b1:
	.res	1,$00
_p1_dy:
	.res	1,$00
_p1_dx:
	.res	1,$00
_b1_vx:
	.res	1,$00
_pad2:
	.res	1,$00
_p2_facing:
	.res	1,$00
_p2grounded:
	.res	1,$00
_p2score:
	.res	1,$00
_p2changed:
	.res	1,$00
_p2_x:
	.res	1,$00
_p2_y:
	.res	1,$00
_b2_x:
	.res	1,$00
_b2_y:
	.res	1,$00
_b2:
	.res	1,$00
_p2_dy:
	.res	1,$00
_p2_dx:
	.res	1,$00
_b2_vx:
	.res	1,$00

; ---------------------------------------------------------------
; void __near__ draw_score (unsigned char x, unsigned char y, unsigned char score)
; ---------------------------------------------------------------

.segment	"CODE"

.proc	_draw_score: near

.segment	"CODE"

;
; void draw_score(unsigned char x, unsigned char y, unsigned char score){
;
	jsr     pusha
;
; unsigned char tens = score / 10;
;
	ldx     #$00
	lda     (c_sp,x)
	jsr     pusha0
	lda     #$0A
	jsr     tosudiva0
	jsr     pusha
;
; unsigned char ones = score % 10;
;
	ldy     #$01
	lda     (c_sp),y
	jsr     pusha0
	lda     #$0A
	jsr     tosumoda0
	jsr     pusha
;
; vram_adr(NTADR_A(x, y));
;
	ldy     #$03
	ldx     #$00
	lda     (c_sp),y
	jsr     aslax4
	stx     tmp1
	asl     a
	rol     tmp1
	sta     ptr1
	iny
	lda     (c_sp),y
	ora     ptr1
	pha
	lda     tmp1
	ora     #$20
	tax
	pla
	jsr     _vram_adr
;
; vram_put((0x30 + tens));
;
	ldy     #$01
	lda     (c_sp),y
	clc
	adc     #$30
	jsr     _vram_put
;
; vram_put((0x30 + ones));
;
	ldy     #$00
	lda     (c_sp),y
	clc
	adc     #$30
	jsr     _vram_put
;
; }
;
	jmp     incsp5

.endproc

; ---------------------------------------------------------------
; void __near__ main (void)
; ---------------------------------------------------------------

.segment	"CODE"

.proc	_main: near

.segment	"CODE"

;
; p1_x = 40;
;
	lda     #$28
	sta     _p1_x
;
; p2_x = 200;
;
	lda     #$C8
	sta     _p2_x
;
; p1_y = 200;
;
	sta     _p1_y
;
; p2_y = 200;
;
	sta     _p2_y
;
; p1_dy = 0;
;
	lda     #$00
	sta     _p1_dy
;
; p1_dx = 0;
;
	sta     _p1_dx
;
; p2_dy = 0;
;
	sta     _p2_dy
;
; p2_dx = 0;
;
	sta     _p2_dx
;
; p1score = 0;
;
	sta     _p1score
;
; p2score = 0;
;
	sta     _p2score
;
; p1changed = 1;
;
	lda     #$01
	sta     _p1changed
;
; p2changed = 1;
;
	sta     _p2changed
;
; ppu_off(); // screen off
;
	jsr     _ppu_off
;
; pal_bg(palette); // load the BG palette
;
	lda     #<(_palette)
	ldx     #>(_palette)
	jsr     _pal_bg
;
; pal_spr(palette); // load the sprite palette
;
	lda     #<(_palette)
	ldx     #>(_palette)
	jsr     _pal_spr
;
; vram_adr(NTADR_A(0,26)); // screen is 32 x 30 tiles
;
	ldx     #$23
	lda     #$40
	jsr     _vram_adr
;
; for (i=0; i<32; ++i){
;
	lda     #$00
	sta     _i
L00C5:	lda     _i
	cmp     #$20
	bcs     L00C6
;
; vram_put(0x01);
;
	lda     #$01
	jsr     _vram_put
;
; for (i=0; i<32; ++i){
;
	inc     _i
	jmp     L00C5
;
; for (i = 0; i < 3; i++){
;
L00C6:	lda     #$00
	sta     _i
L00C7:	lda     _i
	cmp     #$03
	jcs     L0007
;
; vram_adr(NTADR_A((platforms[i].x + j) / 8 , platforms[i].y / 8));
;
	ldx     #$00
	lda     _i
	jsr     mulax3
	clc
	adc     #<(_platforms)
	sta     ptr1
	txa
	adc     #>(_platforms)
	sta     ptr1+1
	ldy     #$01
	ldx     #$00
	lda     (ptr1),y
	lsr     a
	lsr     a
	lsr     a
	jsr     aslax4
	stx     tmp1
	asl     a
	rol     tmp1
	ldx     tmp1
	sta     sreg
	stx     sreg+1
	ldx     #$00
	lda     _i
	jsr     mulax3
	sta     ptr1
	txa
	clc
	adc     #>(_platforms)
	sta     ptr1+1
	ldy     #<(_platforms)
	ldx     #$00
	lda     (ptr1),y
	clc
	adc     _j
	bcc     L00BC
	inx
L00BC:	cpx     #$00
	bpl     L000A
	sta     regsave
	stx     regsave+1
	cpx     #$FF
	bne     L000C
	cmp     #$F9
L000C:	jsr     boolult
	lsr     a
	lda     regsave
	ldx     regsave+1
	bcs     L000A
	ldx     #$00
	txa
	jmp     L000B
L000A:	jsr     asrax3
L000B:	ora     sreg
	pha
	txa
	ora     sreg+1
	tax
	pla
	pha
	txa
	ora     #$20
	tax
	pla
	jsr     _vram_adr
;
; for(j = 0; j < (platforms[i].w / 8); j++){
;
	lda     #$00
	sta     _j
	tax
L00C8:	lda     _i
	jsr     mulax3
	clc
	adc     #<(_platforms)
	sta     ptr1
	txa
	adc     #>(_platforms)
	sta     ptr1+1
	ldy     #$02
	lda     (ptr1),y
	lsr     a
	lsr     a
	lsr     a
	cmp     _j
	bcc     L00C9
	beq     L00C9
;
; vram_put(0x01);
;
	lda     #$01
	jsr     _vram_put
;
; for(j = 0; j < (platforms[i].w / 8); j++){
;
	ldx     #$00
	inc     _j
	jmp     L00C8
;
; for (i = 0; i < 3; i++){
;
L00C9:	inc     _i
	jmp     L00C7
;
; ppu_on_all(); // turn on screen
;
L0007:	jsr     _ppu_on_all
;
; ppu_wait_nmi();
;
L0011:	jsr     _ppu_wait_nmi
;
; oam_clear(); 
;
	jsr     _oam_clear
;
; pad1 = pad_poll(0);
;
	lda     #$00
	jsr     _pad_poll
	sta     _pad1
;
; pad2 = pad_poll(1);
;
	lda     #$01
	jsr     _pad_poll
	sta     _pad2
;
; if(pad1 & PAD_LEFT){
;
	lda     _pad1
	and     #$02
	beq     L00CA
;
; p1_facing = 0;
;
	lda     #$00
	sta     _p1_facing
;
; if(p1_dx > -3) --p1_dx;
;
	lda     _p1_dx
	sec
	sbc     #$FE
	bvs     L0017
	eor     #$80
L0017:	bpl     L00CD
	dec     _p1_dx
	bpl     L00CD
;
; else if(pad1 & PAD_RIGHT){
;
	jmp     L00CD
L00CA:	lda     _pad1
	and     #$01
	beq     L00CB
;
; p1_facing = 1;
;
	lda     #$01
	sta     _p1_facing
;
; if(p1_dx < 3) ++p1_dx;
;
	lda     _p1_dx
	sec
	sbc     #$03
	bvc     L001D
	eor     #$80
L001D:	bpl     L00CD
	inc     _p1_dx
	bpl     L00CD
;
; else{
;
	jmp     L00CD
;
; if(p1_dx > 0) --p1_dx;
;
L00CB:	lda     _p1_dx
	sec
	sbc     #$01
	bvs     L0022
	eor     #$80
L0022:	bpl     L00CC
	dec     _p1_dx
;
; if(p1_dx < 0) ++p1_dx;
;
L00CC:	lda     _p1_dx
	asl     a
	bcc     L00CD
	inc     _p1_dx
;
; if(p1_dx > 0 && p1_x < 245) p1_x += p1_dx;
;
L00CD:	lda     _p1_dx
	sec
	sbc     #$01
	bvs     L0029
	eor     #$80
L0029:	bpl     L00D3
	lda     _p1_x
	cmp     #$F5
	bcs     L00D3
	lda     _p1_dx
	clc
	adc     _p1_x
	sta     _p1_x
;
; if(p1_dx < 0 && p1_x > 10) p1_x += p1_dx;
;
L00D3:	lda     _p1_dx
	asl     a
	bcc     L00D9
	lda     _p1_x
	cmp     #$0B
	bcc     L00D9
	lda     _p1_dx
	clc
	adc     _p1_x
	sta     _p1_x
;
; if((pad1 & PAD_A) && p1grounded){
;
L00D9:	lda     _pad1
	and     #$80
	beq     L00DD
	lda     _p1grounded
	beq     L00DD
;
; p1_dy = -8;
;
	lda     #$F8
	sta     _p1_dy
;
; p1grounded = 0;
;
	lda     #$00
	sta     _p1grounded
;
; if (p1_dy < 4) p1_dy += 1;
;
L00DD:	lda     _p1_dy
	sec
	sbc     #$04
	bvc     L003A
	eor     #$80
L003A:	bpl     L00DE
	inc     _p1_dy
;
; p1_y += p1_dy;
;
L00DE:	lda     _p1_dy
	clc
	adc     _p1_y
	sta     _p1_y
;
; p1grounded = 0;
;
	lda     #$00
	sta     _p1grounded
;
; if(p1_dy >= 0){
;
	ldx     _p1_dy
	jmi     L00E5
;
; if(p1_y >= FLOOR_Y){
;
	lda     _p1_y
	cmp     #$C0
	lda     #$00
	bcc     L00E2
;
; p1_y = FLOOR_Y;
;
	lda     #$C0
	sta     _p1_y
;
; p1_dy = 0;
;
	lda     #$00
	sta     _p1_dy
;
; p1grounded = 1;
;
	lda     #$01
	sta     _p1grounded
;
; for(i = 0; i < 3; i++){
;
	lda     #$00
L00E2:	sta     _i
L00E3:	lda     _i
	cmp     #$03
	jcs     L00E5
;
; if (p1_y >= (platforms[i].y-22) && p1_y < (platforms[i].y-22) + 8){
;
	lda     _p1_y
	jsr     pusha0
	lda     _i
	jsr     mulax3
	clc
	adc     #<(_platforms)
	sta     ptr1
	txa
	adc     #>(_platforms)
	sta     ptr1+1
	ldy     #$01
	ldx     #$00
	lda     (ptr1),y
	sec
	sbc     #$16
	bcs     L0045
	dex
L0045:	jsr     tosicmp
	jmi     L00E4
	lda     _p1_y
	jsr     pusha0
	lda     _i
	jsr     mulax3
	clc
	adc     #<(_platforms)
	sta     ptr1
	txa
	adc     #>(_platforms)
	sta     ptr1+1
	ldy     #$01
	ldx     #$00
	lda     (ptr1),y
	sec
	sbc     #$16
	bcs     L0047
	dex
L0047:	clc
	adc     #$08
	bcc     L0048
	inx
L0048:	jsr     tosicmp
	jpl     L00E4
;
; if (p1_x + 8 > platforms[i].x && p1_x < platforms[i].x + platforms[i].w){
;
	ldx     #$00
	lda     _p1_x
	clc
	adc     #$08
	bcc     L004C
	inx
L004C:	jsr     pushax
	ldx     #$00
	lda     _i
	jsr     mulax3
	sta     ptr1
	txa
	clc
	adc     #>(_platforms)
	sta     ptr1+1
	ldy     #<(_platforms)
	lda     (ptr1),y
	jsr     tosicmp0
	bmi     L00E4
	beq     L00E4
	lda     _p1_x
	jsr     pusha0
	lda     _i
	jsr     mulax3
	sta     ptr1
	txa
	clc
	adc     #>(_platforms)
	sta     ptr1+1
	ldy     #<(_platforms)
	lda     (ptr1),y
	sta     sreg
	ldx     #$00
	lda     _i
	jsr     mulax3
	clc
	adc     #<(_platforms)
	sta     ptr1
	txa
	adc     #>(_platforms)
	sta     ptr1+1
	ldy     #$02
	ldx     #$00
	lda     (ptr1),y
	clc
	adc     sreg
	bcc     L00BD
	inx
L00BD:	jsr     tosicmp
	bpl     L00E4
;
; p1_y = (platforms[i].y-22);
;
	ldx     #$00
	lda     _i
	jsr     mulax3
	clc
	adc     #<(_platforms)
	sta     ptr1
	txa
	adc     #>(_platforms)
	sta     ptr1+1
	ldy     #$01
	lda     (ptr1),y
	sec
	sbc     #$16
	sta     _p1_y
;
; p1_dy = 0;
;
	lda     #$00
	sta     _p1_dy
;
; p1grounded = 1;
;
	sty     _p1grounded
;
; for(i = 0; i < 3; i++){
;
L00E4:	inc     _i
	jmp     L00E3
;
; if((pad1 & PAD_B) && (b1 == 0)){
;
L00E5:	lda     _pad1
	and     #$40
	beq     L00EA
	lda     _b1
	bne     L00EA
;
; b1_y = p1_y + 2;
;
	lda     _p1_y
	clc
	adc     #$02
	sta     _b1_y
;
; b1 = 1;
;
	lda     #$01
	sta     _b1
;
; if(p1_facing == 0){
;
	lda     _p1_facing
	bne     L00E9
;
; b1_x = p1_x - 4;
;
	lda     _p1_x
	sec
	sbc     #$04
	sta     _b1_x
;
; b1_vx = -4;
;
	lda     #$FC
	sta     _b1_vx
;
; p1_dx = 8;
;
	lda     #$08
;
; } else {
;
	jmp     L00C0
;
; b1_x = p1_x + 4;
;
L00E9:	lda     _p1_x
	clc
	adc     #$04
	sta     _b1_x
;
; b1_vx = 4;
;
	lda     #$04
	sta     _b1_vx
;
; p1_dx = -8;
;
	lda     #$F8
L00C0:	sta     _p1_dx
;
; if(b1 == 1){
;
L00EA:	lda     _b1
	cmp     #$01
	bne     L00ED
;
; oam_spr(b1_x, b1_y, 0x02, 0);
;
	jsr     decsp3
	lda     _b1_x
	ldy     #$02
	sta     (c_sp),y
	lda     _b1_y
	dey
	sta     (c_sp),y
	lda     #$02
	dey
	sta     (c_sp),y
	tya
	jsr     _oam_spr
;
; b1_x += b1_vx;
;
	lda     _b1_vx
	clc
	adc     _b1_x
	sta     _b1_x
;
; if(b1_x > 250) b1 = 0;
;
	cmp     #$FB
	bcc     L00ED
	lda     #$00
	sta     _b1
;
; if(pad2 & PAD_LEFT){
;
L00ED:	lda     _pad2
	and     #$02
	beq     L00EE
;
; p2_facing = 0;
;
	lda     #$00
	sta     _p2_facing
;
; if(p2_dx > -3) --p2_dx;
;
	lda     _p2_dx
	sec
	sbc     #$FE
	bvs     L0060
	eor     #$80
L0060:	bpl     L00F1
	dec     _p2_dx
	bpl     L00F1
;
; else if(pad2 & PAD_RIGHT){
;
	jmp     L00F1
L00EE:	lda     _pad2
	and     #$01
	beq     L00EF
;
; p2_facing = 1;
;
	lda     #$01
	sta     _p2_facing
;
; if(p2_dx < 3) ++p2_dx;
;
	lda     _p2_dx
	sec
	sbc     #$03
	bvc     L0066
	eor     #$80
L0066:	bpl     L00F1
	inc     _p2_dx
	bpl     L00F1
;
; else{
;
	jmp     L00F1
;
; if(p2_dx > 0) --p2_dx;
;
L00EF:	lda     _p2_dx
	sec
	sbc     #$01
	bvs     L006B
	eor     #$80
L006B:	bpl     L00F0
	dec     _p2_dx
;
; if(p2_dx < 0) ++p2_dx;
;
L00F0:	lda     _p2_dx
	asl     a
	bcc     L00F1
	inc     _p2_dx
;
; if(p2_dx > 0 && p2_x < 245) p2_x += p2_dx;
;
L00F1:	lda     _p2_dx
	sec
	sbc     #$01
	bvs     L0072
	eor     #$80
L0072:	bpl     L00F7
	lda     _p2_x
	cmp     #$F5
	bcs     L00F7
	lda     _p2_dx
	clc
	adc     _p2_x
	sta     _p2_x
;
; if(p2_dx < 0 && p2_x > 10) p2_x += p2_dx;
;
L00F7:	lda     _p2_dx
	asl     a
	bcc     L00FD
	lda     _p2_x
	cmp     #$0B
	bcc     L00FD
	lda     _p2_dx
	clc
	adc     _p2_x
	sta     _p2_x
;
; if((pad2 & PAD_A) && p2grounded){
;
L00FD:	lda     _pad2
	and     #$80
	beq     L0101
	lda     _p2grounded
	beq     L0101
;
; p2_dy = -8;
;
	lda     #$F8
	sta     _p2_dy
;
; p2grounded = 0;
;
	lda     #$00
	sta     _p2grounded
;
; if (p2_dy < 4) p2_dy += 1;
;
L0101:	lda     _p2_dy
	sec
	sbc     #$04
	bvc     L0083
	eor     #$80
L0083:	bpl     L0102
	inc     _p2_dy
;
; p2_y += p2_dy;
;
L0102:	lda     _p2_dy
	clc
	adc     _p2_y
	sta     _p2_y
;
; p2grounded = 0;
;
	lda     #$00
	sta     _p2grounded
;
; if(p2_dy >= 0){
;
	ldx     _p2_dy
	jmi     L0109
;
; if(p2_y >= FLOOR_Y){
;
	lda     _p2_y
	cmp     #$C0
	lda     #$00
	bcc     L0106
;
; p2_y = FLOOR_Y;
;
	lda     #$C0
	sta     _p2_y
;
; p2_dy = 0;
;
	lda     #$00
	sta     _p2_dy
;
; p2grounded = 1;
;
	lda     #$01
	sta     _p2grounded
;
; for(i = 0; i < 3; i++){
;
	lda     #$00
L0106:	sta     _i
L0107:	lda     _i
	cmp     #$03
	jcs     L0109
;
; if (p2_y >= (platforms[i].y-22) && p2_y < (platforms[i].y-22) + 8){
;
	lda     _p2_y
	jsr     pusha0
	lda     _i
	jsr     mulax3
	clc
	adc     #<(_platforms)
	sta     ptr1
	txa
	adc     #>(_platforms)
	sta     ptr1+1
	ldy     #$01
	ldx     #$00
	lda     (ptr1),y
	sec
	sbc     #$16
	bcs     L008E
	dex
L008E:	jsr     tosicmp
	jmi     L0108
	lda     _p2_y
	jsr     pusha0
	lda     _i
	jsr     mulax3
	clc
	adc     #<(_platforms)
	sta     ptr1
	txa
	adc     #>(_platforms)
	sta     ptr1+1
	ldy     #$01
	ldx     #$00
	lda     (ptr1),y
	sec
	sbc     #$16
	bcs     L0090
	dex
L0090:	clc
	adc     #$08
	bcc     L0091
	inx
L0091:	jsr     tosicmp
	jpl     L0108
;
; if (p2_x + 8 > platforms[i].x && p2_x < platforms[i].x + platforms[i].w){
;
	ldx     #$00
	lda     _p2_x
	clc
	adc     #$08
	bcc     L0095
	inx
L0095:	jsr     pushax
	ldx     #$00
	lda     _i
	jsr     mulax3
	sta     ptr1
	txa
	clc
	adc     #>(_platforms)
	sta     ptr1+1
	ldy     #<(_platforms)
	lda     (ptr1),y
	jsr     tosicmp0
	bmi     L0108
	beq     L0108
	lda     _p2_x
	jsr     pusha0
	lda     _i
	jsr     mulax3
	sta     ptr1
	txa
	clc
	adc     #>(_platforms)
	sta     ptr1+1
	ldy     #<(_platforms)
	lda     (ptr1),y
	sta     sreg
	ldx     #$00
	lda     _i
	jsr     mulax3
	clc
	adc     #<(_platforms)
	sta     ptr1
	txa
	adc     #>(_platforms)
	sta     ptr1+1
	ldy     #$02
	ldx     #$00
	lda     (ptr1),y
	clc
	adc     sreg
	bcc     L00BE
	inx
L00BE:	jsr     tosicmp
	bpl     L0108
;
; p2_y = (platforms[i].y-22);
;
	ldx     #$00
	lda     _i
	jsr     mulax3
	clc
	adc     #<(_platforms)
	sta     ptr1
	txa
	adc     #>(_platforms)
	sta     ptr1+1
	ldy     #$01
	lda     (ptr1),y
	sec
	sbc     #$16
	sta     _p2_y
;
; p2_dy = 0;
;
	lda     #$00
	sta     _p2_dy
;
; p2grounded = 1;
;
	sty     _p2grounded
;
; for(i = 0; i < 3; i++){
;
L0108:	inc     _i
	jmp     L0107
;
; if((pad2 & PAD_B) && (b2 == 0)){
;
L0109:	lda     _pad2
	and     #$40
	beq     L010E
	lda     _b2
	bne     L010E
;
; b2_y = p2_y + 2;
;
	lda     _p2_y
	clc
	adc     #$02
	sta     _b2_y
;
; b2 = 1;
;
	lda     #$01
	sta     _b2
;
; if(p2_facing == 0){
;
	lda     _p2_facing
	bne     L010D
;
; b2_x = p2_x - 4;
;
	lda     _p2_x
	sec
	sbc     #$04
	sta     _b2_x
;
; b2_vx = -4;
;
	lda     #$FC
	sta     _b2_vx
;
; p2_dx = 8;
;
	lda     #$08
;
; } else {
;
	jmp     L00C2
;
; b2_x = p2_x + 4;
;
L010D:	lda     _p2_x
	clc
	adc     #$04
	sta     _b2_x
;
; b2_vx = 4;
;
	lda     #$04
	sta     _b2_vx
;
; p2_dx = -8;
;
	lda     #$F8
L00C2:	sta     _p2_dx
;
; if(b2 == 1){
;
L010E:	lda     _b2
	cmp     #$01
	bne     L0111
;
; oam_spr(b2_x, b2_y, 0x02, 0);
;
	jsr     decsp3
	lda     _b2_x
	ldy     #$02
	sta     (c_sp),y
	lda     _b2_y
	dey
	sta     (c_sp),y
	lda     #$02
	dey
	sta     (c_sp),y
	tya
	jsr     _oam_spr
;
; b2_x += b2_vx;
;
	lda     _b2_vx
	clc
	adc     _b2_x
	sta     _b2_x
;
; if(b2_x > 250) b2 = 0;
;
	cmp     #$FB
	bcc     L0111
	lda     #$00
	sta     _b2
;
; if(b1 == 1){
;
L0111:	lda     _b1
	cmp     #$01
	bne     L0113
;
; if( (b1_x >= p2_x) && (b1_x <= p2_x + 15) && (b1_y >= p2_y) && (b1_y <= p2_y + 15) ){
;
	lda     _b1_x
	cmp     _p2_x
	bcc     L0113
	lda     _b1_x
	jsr     pusha0
	lda     _p2_x
	clc
	adc     #$0F
	bcc     L00A9
	ldx     #$01
L00A9:	jsr     tosicmp
	beq     L00C3
	bpl     L0113
L00C3:	lda     _b1_y
	cmp     _p2_y
	bcc     L0113
	lda     _b1_y
	jsr     pusha0
	lda     _p2_y
	clc
	adc     #$0F
	bcc     L00AA
	ldx     #$01
L00AA:	jsr     tosicmp
	bmi     L00AB
	bne     L0113
;
; p1_x = 40;
;
L00AB:	lda     #$28
	sta     _p1_x
;
; p2_x = 200;
;
	lda     #$C8
	sta     _p2_x
;
; p1_y = 200;
;
	sta     _p1_y
;
; p2_y = 200;
;
	sta     _p2_y
;
; b1 = 0;
;
	lda     #$00
	sta     _b1
;
; b2 = 0;
;
	sta     _b2
;
; p1score++;
;
	inc     _p1score
;
; p1changed = 1;
;
	lda     #$01
	sta     _p1changed
;
; if(b2 == 1){
;
L0113:	lda     _b2
	cmp     #$01
	bne     L00AE
;
; if( (b2_x >= p1_x) && (b2_x <= p1_x + 15) && (b2_y >= p1_y) && (b2_y <= p1_y + 15) ){
;
	lda     _b2_x
	cmp     _p1_x
	bcc     L00AE
	lda     _b2_x
	jsr     pusha0
	lda     _p1_x
	clc
	adc     #$0F
	bcc     L00B0
	ldx     #$01
L00B0:	jsr     tosicmp
	beq     L00C4
	bpl     L00AE
L00C4:	lda     _b2_y
	cmp     _p1_y
	bcc     L00AE
	lda     _b2_y
	jsr     pusha0
	lda     _p1_y
	clc
	adc     #$0F
	bcc     L00B1
	ldx     #$01
L00B1:	jsr     tosicmp
	bmi     L00B2
	bne     L00AE
;
; p1_x = 40;
;
L00B2:	lda     #$28
	sta     _p1_x
;
; p2_x = 200;
;
	lda     #$C8
	sta     _p2_x
;
; p1_y = 200;
;
	sta     _p1_y
;
; p2_y = 200;
;
	sta     _p2_y
;
; b1 = 0;
;
	lda     #$00
	sta     _b1
;
; b2 = 0;
;
	sta     _b2
;
; p2score++;
;
	inc     _p2score
;
; p2changed = 1;
;
	lda     #$01
	sta     _p2changed
;
; oam_spr(p1_x, p1_y, 0x41, 0);
;
L00AE:	jsr     decsp3
	lda     _p1_x
	ldy     #$02
	sta     (c_sp),y
	lda     _p1_y
	dey
	sta     (c_sp),y
	lda     #$41
	dey
	sta     (c_sp),y
	tya
	jsr     _oam_spr
;
; oam_spr(p1_x + 8, p1_y, 0x42, 0);
;
	jsr     decsp3
	lda     _p1_x
	clc
	adc     #$08
	ldy     #$02
	sta     (c_sp),y
	lda     _p1_y
	dey
	sta     (c_sp),y
	lda     #$42
	dey
	sta     (c_sp),y
	tya
	jsr     _oam_spr
;
; oam_spr(p1_x, p1_y + 8, 0x43, 0);
;
	jsr     decsp3
	lda     _p1_x
	ldy     #$02
	sta     (c_sp),y
	lda     _p1_y
	clc
	adc     #$08
	dey
	sta     (c_sp),y
	lda     #$43
	dey
	sta     (c_sp),y
	tya
	jsr     _oam_spr
;
; oam_spr(p1_x + 8, p1_y + 8, 0x44, 0);
;
	jsr     decsp3
	lda     _p1_x
	clc
	adc     #$08
	ldy     #$02
	sta     (c_sp),y
	lda     _p1_y
	clc
	adc     #$08
	dey
	sta     (c_sp),y
	lda     #$44
	dey
	sta     (c_sp),y
	tya
	jsr     _oam_spr
;
; oam_spr(p2_x, p2_y, 0x41, 0);
;
	jsr     decsp3
	lda     _p2_x
	ldy     #$02
	sta     (c_sp),y
	lda     _p2_y
	dey
	sta     (c_sp),y
	lda     #$41
	dey
	sta     (c_sp),y
	tya
	jsr     _oam_spr
;
; oam_spr(p2_x + 8, p2_y, 0x42, 0);
;
	jsr     decsp3
	lda     _p2_x
	clc
	adc     #$08
	ldy     #$02
	sta     (c_sp),y
	lda     _p2_y
	dey
	sta     (c_sp),y
	lda     #$42
	dey
	sta     (c_sp),y
	tya
	jsr     _oam_spr
;
; oam_spr(p2_x, p2_y + 8, 0x43, 0);
;
	jsr     decsp3
	lda     _p2_x
	ldy     #$02
	sta     (c_sp),y
	lda     _p2_y
	clc
	adc     #$08
	dey
	sta     (c_sp),y
	lda     #$43
	dey
	sta     (c_sp),y
	tya
	jsr     _oam_spr
;
; oam_spr(p2_x + 8, p2_y + 8, 0x44, 0);
;
	jsr     decsp3
	lda     _p2_x
	clc
	adc     #$08
	ldy     #$02
	sta     (c_sp),y
	lda     _p2_y
	clc
	adc     #$08
	dey
	sta     (c_sp),y
	lda     #$44
	dey
	sta     (c_sp),y
	tya
	jsr     _oam_spr
;
; while (1){
;
	jmp     L0011

.endproc

